EXPORTS 
	??_R0?AU?$DefaultMessageCreator@U?$JointState_@V?$allocator@X@std@@@sensor_msgs@@@ros@@@8 	 DATA
	??_R0?AU?$JointState_@V?$allocator@X@std@@@sensor_msgs@@@8 	 DATA
	??_R0?AU?$error_info_injector@Vbad_function_call@boost@@@exception_detail@boost@@@8 	 DATA
	??_R0?AV?$SubscriptionCallbackHelperT@AEBV?$shared_ptr@$$CBU?$JointState_@V?$allocator@X@std@@@sensor_msgs@@@boost@@X@ros@@@8 	 DATA
	??_R0?AV?$bind_t@XV?$mf1@XVJointStateListener@robot_state_publisher@@AEBUTimerEvent@ros@@@_mfi@boost@@V?$list2@V?$value@PEAVJointStateListener@robot_state_publisher@@@_bi@boost@@U?$arg@$00@3@@_bi@3@@_bi@boost@@@8 	 DATA
	??_R0?AV?$bind_t@XV?$mf1@XVJointStateListener@robot_state_publisher@@AEBV?$shared_ptr@$$CBU?$JointState_@V?$allocator@X@std@@@sensor_msgs@@@boost@@@_mfi@boost@@V?$list2@V?$value@PEAVJointStateListener@robot_state_publisher@@@_bi@boost@@U?$arg@$00@3@@_bi@3@@_bi@boost@@@8 	 DATA
	??_R0?AV?$clone_impl@U?$error_info_injector@Vbad_function_call@boost@@@exception_detail@boost@@@exception_detail@boost@@@8 	 DATA
	??_R0?AV?$function@$$A6AXAEBV?$shared_ptr@$$CBU?$JointState_@V?$allocator@X@std@@@sensor_msgs@@@boost@@@Z@boost@@@8 	 DATA
	??_R0?AV?$sp_counted_impl_pd@PEAU?$JointState_@V?$allocator@X@std@@@sensor_msgs@@V?$sp_ms_deleter@U?$JointState_@V?$allocator@X@std@@@sensor_msgs@@@detail@boost@@@detail@boost@@@8 	 DATA
	??_R0?AV?$sp_counted_impl_pd@PEAV?$SubscriptionCallbackHelperT@AEBV?$shared_ptr@$$CBU?$JointState_@V?$allocator@X@std@@@sensor_msgs@@@boost@@X@ros@@V?$sp_ms_deleter@V?$SubscriptionCallbackHelperT@AEBV?$shared_ptr@$$CBU?$JointState_@V?$allocator@X@std@@@sensor_msgs@@@boost@@X@ros@@@detail@boost@@@detail@boost@@@8 	 DATA
	??_R0?AV?$sp_ms_deleter@U?$JointState_@V?$allocator@X@std@@@sensor_msgs@@@detail@boost@@@8 	 DATA
	??_R0?AV?$sp_ms_deleter@V?$SubscriptionCallbackHelperT@AEBV?$shared_ptr@$$CBU?$JointState_@V?$allocator@X@std@@@sensor_msgs@@@boost@@X@ros@@@detail@boost@@@8 	 DATA
	??_R0?AVJointStateListener@robot_state_publisher@@@8 	 DATA
	??_R0?AVRobotStatePublisher@robot_state_publisher@@@8 	 DATA
	??_R0?AVSubscriptionCallbackHelper@ros@@@8 	 DATA
	??_R0?AVTree@KDL@@@8 	 DATA
	??_R0?AVbad_alloc@std@@@8 	 DATA
	??_R0?AVbad_array_new_length@std@@@8 	 DATA
	??_R0?AVbad_function_call@boost@@@8 	 DATA
	??_R0?AVclone_base@exception_detail@boost@@@8 	 DATA
	??_R0?AVexception@boost@@@8 	 DATA
	??_R0?AVexception@std@@@8 	 DATA
	??_R0?AVruntime_error@std@@@8 	 DATA
	??_R0?AVsp_counted_base@detail@boost@@@8 	 DATA
	?__rosconsole_define_location__loc@?6??deserialize@?$SubscriptionCallbackHelperT@AEBV?$shared_ptr@$$CBU?$JointState_@V?$allocator@X@std@@@sensor_msgs@@@boost@@X@ros@@UEAA?AV?$shared_ptr@$$CBX@boost@@AEBUSubscriptionCallbackHelperDeserializeParams@3@@Z@4ULogLocation@console@3@A 	 DATA
	??$?0$$CBU?$JointState_@V?$allocator@X@std@@@sensor_msgs@@@?$shared_ptr@U?$JointState_@V?$allocator@X@std@@@sensor_msgs@@@boost@@QEAA@$$QEAV?$shared_ptr@$$CBU?$JointState_@V?$allocator@X@std@@@sensor_msgs@@@1@PEAU?$JointState_@V?$allocator@X@std@@@sensor_msgs@@@Z
	??$?0$$CBU?$JointState_@V?$allocator@X@std@@@sensor_msgs@@@?$shared_ptr@U?$JointState_@V?$allocator@X@std@@@sensor_msgs@@@boost@@QEAA@AEBV?$shared_ptr@$$CBU?$JointState_@V?$allocator@X@std@@@sensor_msgs@@@1@PEAU?$JointState_@V?$allocator@X@std@@@sensor_msgs@@@Z
	??$?0$$CBX@?$shared_ptr@$$CBU?$JointState_@V?$allocator@X@std@@@sensor_msgs@@@boost@@QEAA@$$QEAV?$shared_ptr@$$CBX@1@PEBU?$JointState_@V?$allocator@X@std@@@sensor_msgs@@@Z
	??$?0$$CBX@?$shared_ptr@X@boost@@QEAA@AEBV?$shared_ptr@$$CBX@1@PEAX@Z
	??$?0$$V@?$_Compressed_pair@V?$allocator@D@std@@V?$_String_val@U?$_Simple_types@D@std@@@2@$00@std@@QEAA@U_Zero_then_variadic_args_t@1@@Z
	??$?0$$V@?$_Compressed_pair@V?$allocator@N@std@@V?$_Vector_val@U?$_Simple_types@N@std@@@2@$00@std@@QEAA@U_Zero_then_variadic_args_t@1@@Z
	??$?0$$V@?$_Compressed_pair@V?$allocator@U?$_Tree_node@U?$pair@$$CBV?$basic_string@DU?$char_traits@D@std@@V?$allocator@D@2@@std@@N@std@@PEAX@std@@@std@@V?$_Tree_val@U?$_Tree_simple_types@U?$pair@$$CBV?$basic_string@DU?$char_traits@D@std@@V?$allocator@D@2@@std@@N@std@@@std@@@2@$00@std@@QEAA@U_Zero_then_variadic_args_t@1@@Z
	??$?0$$V@?$_Compressed_pair@V?$allocator@U?$_Tree_node@U?$pair@$$CBV?$basic_string@DU?$char_traits@D@std@@V?$allocator@D@2@@std@@V12@@std@@PEAX@std@@@std@@V?$_Tree_val@U?$_Tree_simple_types@U?$pair@$$CBV?$basic_string@DU?$char_traits@D@std@@V?$allocator@D@2@@std@@V12@@std@@@std@@@2@$00@std@@QEAA@U_Zero_then_variadic_args_t@1@@Z
	??$?0$$V@?$_Compressed_pair@V?$allocator@U?$_Tree_node@U?$pair@$$CBV?$basic_string@DU?$char_traits@D@std@@V?$allocator@D@2@@std@@V?$shared_ptr@VJoint@urdf@@@2@@std@@PEAX@std@@@std@@V?$_Tree_val@U?$_Tree_simple_types@U?$pair@$$CBV?$basic_string@DU?$char_traits@D@std@@V?$allocator@D@2@@std@@V?$shared_ptr@VJoint@urdf@@@2@@std@@@std@@@2@$00@std@@QEAA@U_Zero_then_variadic_args_t@1@@Z
	??$?0$$V@?$_Compressed_pair@V?$allocator@U?$_Tree_node@U?$pair@$$CBV?$basic_string@DU?$char_traits@D@std@@V?$allocator@D@2@@std@@V?$shared_ptr@VJointMimic@urdf@@@2@@std@@PEAX@std@@@std@@V?$_Tree_val@U?$_Tree_simple_types@U?$pair@$$CBV?$basic_string@DU?$char_traits@D@std@@V?$allocator@D@2@@std@@V?$shared_ptr@VJointMimic@urdf@@@2@@std@@@std@@@2@$00@std@@QEAA@U_Zero_then_variadic_args_t@1@@Z
	??$?0$$V@?$_Compressed_pair@V?$allocator@U?$_Tree_node@U?$pair@$$CBV?$basic_string@DU?$char_traits@D@std@@V?$allocator@D@2@@std@@V?$shared_ptr@VLink@urdf@@@2@@std@@PEAX@std@@@std@@V?$_Tree_val@U?$_Tree_simple_types@U?$pair@$$CBV?$basic_string@DU?$char_traits@D@std@@V?$allocator@D@2@@std@@V?$shared_ptr@VLink@urdf@@@2@@std@@@std@@@2@$00@std@@QEAA@U_Zero_then_variadic_args_t@1@@Z
	??$?0$$V@?$_Compressed_pair@V?$allocator@U?$_Tree_node@U?$pair@$$CBV?$basic_string@DU?$char_traits@D@std@@V?$allocator@D@2@@std@@V?$shared_ptr@VMaterial@urdf@@@2@@std@@PEAX@std@@@std@@V?$_Tree_val@U?$_Tree_simple_types@U?$pair@$$CBV?$basic_string@DU?$char_traits@D@std@@V?$allocator@D@2@@std@@V?$shared_ptr@VMaterial@urdf@@@2@@std@@@std@@@2@$00@std@@QEAA@U_Zero_then_variadic_args_t@1@@Z
	??$?0$$V@?$_Compressed_pair@V?$allocator@U?$_Tree_node@U?$pair@$$CBV?$basic_string@DU?$char_traits@D@std@@V?$allocator@D@2@@std@@VTime@ros@@@std@@PEAX@std@@@std@@V?$_Tree_val@U?$_Tree_simple_types@U?$pair@$$CBV?$basic_string@DU?$char_traits@D@std@@V?$allocator@D@2@@std@@VTime@ros@@@std@@@std@@@2@$00@std@@QEAA@U_Zero_then_variadic_args_t@1@@Z
	??$?0$$V@?$_Compressed_pair@V?$allocator@V?$basic_string@DU?$char_traits@D@std@@V?$allocator@D@2@@std@@@std@@V?$_Vector_val@U?$_Simple_types@V?$basic_string@DU?$char_traits@D@std@@V?$allocator@D@2@@std@@@std@@@2@$00@std@@QEAA@U_Zero_then_variadic_args_t@1@@Z
	??$?0AEAPEAU?$_Tree_node@U?$pair@$$CBV?$basic_string@DU?$char_traits@D@std@@V?$allocator@D@2@@std@@N@std@@PEAX@std@@_N$0A@@?$pair@PEAU?$_Tree_node@U?$pair@$$CBV?$basic_string@DU?$char_traits@D@std@@V?$allocator@D@2@@std@@N@std@@PEAX@std@@_N@std@@QEAA@AEAPEAU?$_Tree_node@U?$pair@$$CBV?$basic_string@DU?$char_traits@D@std@@V?$allocator@D@2@@std@@N@std@@PEAX@1@$$QEA_N@Z
	??$?0AEAPEAU?$_Tree_node@U?$pair@$$CBV?$basic_string@DU?$char_traits@D@std@@V?$allocator@D@2@@std@@V?$shared_ptr@VJointMimic@urdf@@@2@@std@@PEAX@std@@_N$0A@@?$pair@PEAU?$_Tree_node@U?$pair@$$CBV?$basic_string@DU?$char_traits@D@std@@V?$allocator@D@2@@std@@V?$shared_ptr@VJointMimic@urdf@@@2@@std@@PEAX@std@@_N@std@@QEAA@AEAPEAU?$_Tree_node@U?$pair@$$CBV?$basic_string@DU?$char_traits@D@std@@V?$allocator@D@2@@std@@V?$shared_ptr@VJointMimic@urdf@@@2@@std@@PEAX@1@$$QEA_N@Z
	??$?0AEBQEAU?$_Tree_node@U?$pair@$$CBV?$basic_string@DU?$char_traits@D@std@@V?$allocator@D@2@@std@@N@std@@PEAX@std@@_N$0A@@?$pair@PEAU?$_Tree_node@U?$pair@$$CBV?$basic_string@DU?$char_traits@D@std@@V?$allocator@D@2@@std@@N@std@@PEAX@std@@_N@std@@QEAA@AEBQEAU?$_Tree_node@U?$pair@$$CBV?$basic_string@DU?$char_traits@D@std@@V?$allocator@D@2@@std@@N@std@@PEAX@1@$$QEA_N@Z
	??$?0AEBQEAU?$_Tree_node@U?$pair@$$CBV?$basic_string@DU?$char_traits@D@std@@V?$allocator@D@2@@std@@VTime@ros@@@std@@PEAX@std@@_N$0A@@?$pair@PEAU?$_Tree_node@U?$pair@$$CBV?$basic_string@DU?$char_traits@D@std@@V?$allocator@D@2@@std@@VTime@ros@@@std@@PEAX@std@@_N@std@@QEAA@AEBQEAU?$_Tree_node@U?$pair@$$CBV?$basic_string@DU?$char_traits@D@std@@V?$allocator@D@2@@std@@VTime@ros@@@std@@PEAX@1@$$QEA_N@Z
	??$?0AEBU?$less@V?$basic_string@DU?$char_traits@D@std@@V?$allocator@D@2@@std@@@std@@U_Zero_then_variadic_args_t@1@@?$_Compressed_pair@U?$less@V?$basic_string@DU?$char_traits@D@std@@V?$allocator@D@2@@std@@@std@@V?$_Compressed_pair@V?$allocator@U?$_Tree_node@U?$pair@$$CBV?$basic_string@DU?$char_traits@D@std@@V?$allocator@D@2@@std@@N@std@@PEAX@std@@@std@@V?$_Tree_val@U?$_Tree_simple_types@U?$pair@$$CBV?$basic_string@DU?$char_traits@D@std@@V?$allocator@D@2@@std@@N@std@@@std@@@2@$00@2@$00@std@@QEAA@U_One_then_variadic_args_t@1@AEBU?$less@V?$basic_string@DU?$char_traits@D@std@@V?$allocator@D@2@@std@@@1@$$QEAU_Zero_then_variadic_args_t@1@@Z
	??$?0AEBU?$less@V?$basic_string@DU?$char_traits@D@std@@V?$allocator@D@2@@std@@@std@@U_Zero_then_variadic_args_t@1@@?$_Compressed_pair@U?$less@V?$basic_string@DU?$char_traits@D@std@@V?$allocator@D@2@@std@@@std@@V?$_Compressed_pair@V?$allocator@U?$_Tree_node@U?$pair@$$CBV?$basic_string@DU?$char_traits@D@std@@V?$allocator@D@2@@std@@V12@@std@@PEAX@std@@@std@@V?$_Tree_val@U?$_Tree_simple_types@U?$pair@$$CBV?$basic_string@DU?$char_traits@D@std@@V?$allocator@D@2@@std@@V12@@std@@@std@@@2@$00@2@$00@std@@QEAA@U_One_then_variadic_args_t@1@AEBU?$less@V?$basic_string@DU?$char_traits@D@std@@V?$allocator@D@2@@std@@@1@$$QEAU_Zero_then_variadic_args_t@1@@Z
	??$?0AEBU?$less@V?$basic_string@DU?$char_traits@D@std@@V?$allocator@D@2@@std@@@std@@U_Zero_then_variadic_args_t@1@@?$_Compressed_pair@U?$less@V?$basic_string@DU?$char_traits@D@std@@V?$allocator@D@2@@std@@@std@@V?$_Compressed_pair@V?$allocator@U?$_Tree_node@U?$pair@$$CBV?$basic_string@DU?$char_traits@D@std@@V?$allocator@D@2@@std@@V?$shared_ptr@VJoint@urdf@@@2@@std@@PEAX@std@@@std@@V?$_Tree_val@U?$_Tree_simple_types@U?$pair@$$CBV?$basic_string@DU?$char_traits@D@std@@V?$allocator@D@2@@std@@V?$shared_ptr@VJoint@urdf@@@2@@std@@@std@@@2@$00@2@$00@std@@QEAA@U_One_then_variadic_args_t@1@AEBU?$less@V?$basic_string@DU?$char_traits@D@std@@V?$allocator@D@2@@std@@@1@$$QEAU_Zero_then_variadic_args_t@1@@Z
	??$?0AEBU?$less@V?$basic_string@DU?$char_traits@D@std@@V?$allocator@D@2@@std@@@std@@U_Zero_then_variadic_args_t@1@@?$_Compressed_pair@U?$less@V?$basic_string@DU?$char_traits@D@std@@V?$allocator@D@2@@std@@@std@@V?$_Compressed_pair@V?$allocator@U?$_Tree_node@U?$pair@$$CBV?$basic_string@DU?$char_traits@D@std@@V?$allocator@D@2@@std@@V?$shared_ptr@VJointMimic@urdf@@@2@@std@@PEAX@std@@@std@@V?$_Tree_val@U?$_Tree_simple_types@U?$pair@$$CBV?$basic_string@DU?$char_traits@D@std@@V?$allocator@D@2@@std@@V?$shared_ptr@VJointMimic@urdf@@@2@@std@@@std@@@2@$00@2@$00@std@@QEAA@U_One_then_variadic_args_t@1@AEBU?$less@V?$basic_string@DU?$char_traits@D@std@@V?$allocator@D@2@@std@@@1@$$QEAU_Zero_then_variadic_args_t@1@@Z
	??$?0AEBU?$less@V?$basic_string@DU?$char_traits@D@std@@V?$allocator@D@2@@std@@@std@@U_Zero_then_variadic_args_t@1@@?$_Compressed_pair@U?$less@V?$basic_string@DU?$char_traits@D@std@@V?$allocator@D@2@@std@@@std@@V?$_Compressed_pair@V?$allocator@U?$_Tree_node@U?$pair@$$CBV?$basic_string@DU?$char_traits@D@std@@V?$allocator@D@2@@std@@V?$shared_ptr@VLink@urdf@@@2@@std@@PEAX@std@@@std@@V?$_Tree_val@U?$_Tree_simple_types@U?$pair@$$CBV?$basic_string@DU?$char_traits@D@std@@V?$allocator@D@2@@std@@V?$shared_ptr@VLink@urdf@@@2@@std@@@std@@@2@$00@2@$00@std@@QEAA@U_One_then_variadic_args_t@1@AEBU?$less@V?$basic_string@DU?$char_traits@D@std@@V?$allocator@D@2@@std@@@1@$$QEAU_Zero_then_variadic_args_t@1@@Z
	??$?0AEBU?$less@V?$basic_string@DU?$char_traits@D@std@@V?$allocator@D@2@@std@@@std@@U_Zero_then_variadic_args_t@1@@?$_Compressed_pair@U?$less@V?$basic_string@DU?$char_traits@D@std@@V?$allocator@D@2@@std@@@std@@V?$_Compressed_pair@V?$allocator@U?$_Tree_node@U?$pair@$$CBV?$basic_string@DU?$char_traits@D@std@@V?$allocator@D@2@@std@@V?$shared_ptr@VMaterial@urdf@@@2@@std@@PEAX@std@@@std@@V?$_Tree_val@U?$_Tree_simple_types@U?$pair@$$CBV?$basic_string@DU?$char_traits@D@std@@V?$allocator@D@2@@std@@V?$shared_ptr@VMaterial@urdf@@@2@@std@@@std@@@2@$00@2@$00@std@@QEAA@U_One_then_variadic_args_t@1@AEBU?$less@V?$basic_string@DU?$char_traits@D@std@@V?$allocator@D@2@@std@@@1@$$QEAU_Zero_then_variadic_args_t@1@@Z
	??$?0AEBU?$less@V?$basic_string@DU?$char_traits@D@std@@V?$allocator@D@2@@std@@@std@@U_Zero_then_variadic_args_t@1@@?$_Compressed_pair@U?$less@V?$basic_string@DU?$char_traits@D@std@@V?$allocator@D@2@@std@@@std@@V?$_Compressed_pair@V?$allocator@U?$_Tree_node@U?$pair@$$CBV?$basic_string@DU?$char_traits@D@std@@V?$allocator@D@2@@std@@VTime@ros@@@std@@PEAX@std@@@std@@V?$_Tree_val@U?$_Tree_simple_types@U?$pair@$$CBV?$basic_string@DU?$char_traits@D@std@@V?$allocator@D@2@@std@@VTime@ros@@@std@@@std@@@2@$00@2@$00@std@@QEAA@U_One_then_variadic_args_t@1@AEBU?$less@V?$basic_string@DU?$char_traits@D@std@@V?$allocator@D@2@@std@@@1@$$QEAU_Zero_then_variadic_args_t@1@@Z
	??$?0AEBUpiecewise_construct_t@std@@V?$tuple@AEBV?$basic_string@DU?$char_traits@D@std@@V?$allocator@D@2@@std@@@1@V?$tuple@$$V@1@@?$_Tree_temp_node@V?$allocator@U?$_Tree_node@U?$pair@$$CBV?$basic_string@DU?$char_traits@D@std@@V?$allocator@D@2@@std@@N@std@@PEAX@std@@@std@@@std@@QEAA@AEAV?$allocator@U?$_Tree_node@U?$pair@$$CBV?$basic_string@DU?$char_traits@D@std@@V?$allocator@D@2@@std@@N@std@@PEAX@std@@@1@PEAU?$_Tree_node@U?$pair@$$CBV?$basic_string@DU?$char_traits@D@std@@V?$allocator@D@2@@std@@N@std@@PEAX@1@AEBUpiecewise_construct_t@1@$$QEAV?$tuple@AEBV?$basic_string@DU?$char_traits@D@std@@V?$allocator@D@2@@std@@@1@$$QEAV?$tuple@$$V@1@@Z
	??$?0AEBUpiecewise_construct_t@std@@V?$tuple@AEBV?$basic_string@DU?$char_traits@D@std@@V?$allocator@D@2@@std@@@1@V?$tuple@$$V@1@@?$_Tree_temp_node@V?$allocator@U?$_Tree_node@U?$pair@$$CBV?$basic_string@DU?$char_traits@D@std@@V?$allocator@D@2@@std@@VTime@ros@@@std@@PEAX@std@@@std@@@std@@QEAA@AEAV?$allocator@U?$_Tree_node@U?$pair@$$CBV?$basic_string@DU?$char_traits@D@std@@V?$allocator@D@2@@std@@VTime@ros@@@std@@PEAX@std@@@1@PEAU?$_Tree_node@U?$pair@$$CBV?$basic_string@DU?$char_traits@D@std@@V?$allocator@D@2@@std@@VTime@ros@@@std@@PEAX@1@AEBUpiecewise_construct_t@1@$$QEAV?$tuple@AEBV?$basic_string@DU?$char_traits@D@std@@V?$allocator@D@2@@std@@@1@$$QEAV?$tuple@$$V@1@@Z
	??$?0AEBV?$allocator@D@std@@$$V@?$_Compressed_pair@V?$allocator@D@std@@V?$_String_val@U?$_Simple_types@D@std@@@2@$00@std@@QEAA@U_One_then_variadic_args_t@1@AEBV?$allocator@D@1@@Z
	??$?0AEBV?$basic_string@DU?$char_traits@D@std@@V?$allocator@D@2@@std@@$$Z$$V@?$pair@$$CBV?$basic_string@DU?$char_traits@D@std@@V?$allocator@D@2@@std@@N@std@@QEAA@Upiecewise_construct_t@1@V?$tuple@AEBV?$basic_string@DU?$char_traits@D@std@@V?$allocator@D@2@@std@@@1@V?$tuple@$$V@1@@Z
	??$?0AEBV?$basic_string@DU?$char_traits@D@std@@V?$allocator@D@2@@std@@$$Z$$V@?$pair@$$CBV?$basic_string@DU?$char_traits@D@std@@V?$allocator@D@2@@std@@VTime@ros@@@std@@QEAA@Upiecewise_construct_t@1@V?$tuple@AEBV?$basic_string@DU?$char_traits@D@std@@V?$allocator@D@2@@std@@@1@V?$tuple@$$V@1@@Z
	??$?0AEBV?$basic_string@DU?$char_traits@D@std@@V?$allocator@D@2@@std@@$0A@@?$tuple@AEBV?$basic_string@DU?$char_traits@D@std@@V?$allocator@D@2@@std@@@std@@QEAA@AEBV?$basic_string@DU?$char_traits@D@std@@V?$allocator@D@2@@1@@Z
	??$?0AEBV?$basic_string@DU?$char_traits@D@std@@V?$allocator@D@2@@std@@@?$_Tuple_val@AEBV?$basic_string@DU?$char_traits@D@std@@V?$allocator@D@2@@std@@@std@@QEAA@AEBV?$basic_string@DU?$char_traits@D@std@@V?$allocator@D@2@@1@@Z
	??$?0AEBV?$basic_string@DU?$char_traits@D@std@@V?$allocator@D@2@@std@@AEAN$0A@@?$pair@V?$basic_string@DU?$char_traits@D@std@@V?$allocator@D@2@@std@@N@std@@QEAA@AEBV?$basic_string@DU?$char_traits@D@std@@V?$allocator@D@2@@1@AEAN@Z
	??$?0AEBV?$basic_string@DU?$char_traits@D@std@@V?$allocator@D@2@@std@@AEAV?$shared_ptr@VJointMimic@urdf@@@1@$0A@@?$pair@V?$basic_string@DU?$char_traits@D@std@@V?$allocator@D@2@@std@@V?$shared_ptr@VJointMimic@urdf@@@2@@std@@QEAA@AEBV?$basic_string@DU?$char_traits@D@std@@V?$allocator@D@2@@1@AEAV?$shared_ptr@VJointMimic@urdf@@@1@@Z
	??$?0PEAU?$JointState_@V?$allocator@X@std@@@sensor_msgs@@V?$sp_ms_deleter@U?$JointState_@V?$allocator@X@std@@@sensor_msgs@@@detail@boost@@@shared_count@detail@boost@@QEAA@PEAU?$JointState_@V?$allocator@X@std@@@sensor_msgs@@U?$sp_inplace_tag@V?$sp_ms_deleter@U?$JointState_@V?$allocator@X@std@@@sensor_msgs@@@detail@boost@@@12@@Z
	??$?0PEAU?$_Tree_node@U?$pair@$$CBV?$basic_string@DU?$char_traits@D@std@@V?$allocator@D@2@@std@@N@std@@PEAX@std@@_N$0A@@?$pair@PEAU?$_Tree_node@U?$pair@$$CBV?$basic_string@DU?$char_traits@D@std@@V?$allocator@D@2@@std@@N@std@@PEAX@std@@_N@std@@QEAA@$$QEAPEAU?$_Tree_node@U?$pair@$$CBV?$basic_string@DU?$char_traits@D@std@@V?$allocator@D@2@@std@@N@std@@PEAX@1@$$QEA_N@Z
	??$?0PEAU?$_Tree_node@U?$pair@$$CBV?$basic_string@DU?$char_traits@D@std@@V?$allocator@D@2@@std@@V?$shared_ptr@VJointMimic@urdf@@@2@@std@@PEAX@std@@_N$0A@@?$pair@PEAU?$_Tree_node@U?$pair@$$CBV?$basic_string@DU?$char_traits@D@std@@V?$allocator@D@2@@std@@V?$shared_ptr@VJointMimic@urdf@@@2@@std@@PEAX@std@@_N@std@@QEAA@$$QEAPEAU?$_Tree_node@U?$pair@$$CBV?$basic_string@DU?$char_traits@D@std@@V?$allocator@D@2@@std@@V?$shared_ptr@VJointMimic@urdf@@@2@@std@@PEAX@1@$$QEA_N@Z
	??$?0PEAU?$_Tree_node@U?$pair@$$CBV?$basic_string@DU?$char_traits@D@std@@V?$allocator@D@2@@std@@VTime@ros@@@std@@PEAX@std@@_N$0A@@?$pair@PEAU?$_Tree_node@U?$pair@$$CBV?$basic_string@DU?$char_traits@D@std@@V?$allocator@D@2@@std@@VTime@ros@@@std@@PEAX@std@@_N@std@@QEAA@$$QEAPEAU?$_Tree_node@U?$pair@$$CBV?$basic_string@DU?$char_traits@D@std@@V?$allocator@D@2@@std@@VTime@ros@@@std@@PEAX@1@$$QEA_N@Z
	??$?0PEAV?$SubscriptionCallbackHelperT@AEBV?$shared_ptr@$$CBU?$JointState_@V?$allocator@X@std@@@sensor_msgs@@@boost@@X@ros@@V?$sp_ms_deleter@V?$SubscriptionCallbackHelperT@AEBV?$shared_ptr@$$CBU?$JointState_@V?$allocator@X@std@@@sensor_msgs@@@boost@@X@ros@@@detail@boost@@@shared_count@detail@boost@@QEAA@PEAV?$SubscriptionCallbackHelperT@AEBV?$shared_ptr@$$CBU?$JointState_@V?$allocator@X@std@@@sensor_msgs@@@boost@@X@ros@@U?$sp_inplace_tag@V?$sp_ms_deleter@V?$SubscriptionCallbackHelperT@AEBV?$shared_ptr@$$CBU?$JointState_@V?$allocator@X@std@@@sensor_msgs@@@boost@@X@ros@@@detail@boost@@@12@@Z
	??$?0U?$DefaultMessageCreator@U?$JointState_@V?$allocator@X@std@@@sensor_msgs@@@ros@@@?$function0@V?$shared_ptr@U?$JointState_@V?$allocator@X@std@@@sensor_msgs@@@boost@@@boost@@QEAA@U?$DefaultMessageCreator@U?$JointState_@V?$allocator@X@std@@@sensor_msgs@@@ros@@H@Z
	??$?0U?$DefaultMessageCreator@U?$JointState_@V?$allocator@X@std@@@sensor_msgs@@@ros@@@?$function@$$A6A?AV?$shared_ptr@U?$JointState_@V?$allocator@X@std@@@sensor_msgs@@@boost@@XZ@boost@@QEAA@U?$DefaultMessageCreator@U?$JointState_@V?$allocator@X@std@@@sensor_msgs@@@ros@@H@Z
	??$?0U?$JointState_@V?$allocator@X@std@@@sensor_msgs@@@?$shared_ptr@$$CBU?$JointState_@V?$allocator@X@std@@@sensor_msgs@@@boost@@QEAA@$$QEAV?$shared_ptr@U?$JointState_@V?$allocator@X@std@@@sensor_msgs@@@1@Usp_empty@detail@1@@Z
	??$?0U?$JointState_@V?$allocator@X@std@@@sensor_msgs@@@?$shared_ptr@$$CBU?$JointState_@V?$allocator@X@std@@@sensor_msgs@@@boost@@QEAA@AEBV?$shared_ptr@U?$JointState_@V?$allocator@X@std@@@sensor_msgs@@@1@Usp_empty@detail@1@@Z
	??$?0U?$JointState_@V?$allocator@X@std@@@sensor_msgs@@@?$shared_ptr@$$CBX@boost@@QEAA@AEBV?$shared_ptr@U?$JointState_@V?$allocator@X@std@@@sensor_msgs@@@1@Usp_empty@detail@1@@Z
	??$?0U?$JointState_@V?$allocator@X@std@@@sensor_msgs@@@?$shared_ptr@U?$JointState_@V?$allocator@X@std@@@sensor_msgs@@@boost@@QEAA@AEBV01@PEAU?$JointState_@V?$allocator@X@std@@@sensor_msgs@@@Z
	??$?0U?$JointState_@V?$allocator@X@std@@@sensor_msgs@@U?$sp_inplace_tag@V?$sp_ms_deleter@U?$JointState_@V?$allocator@X@std@@@sensor_msgs@@@detail@boost@@@detail@boost@@@?$shared_ptr@U?$JointState_@V?$allocator@X@std@@@sensor_msgs@@@boost@@QEAA@PEAU?$JointState_@V?$allocator@X@std@@@sensor_msgs@@U?$sp_inplace_tag@V?$sp_ms_deleter@U?$JointState_@V?$allocator@X@std@@@sensor_msgs@@@detail@boost@@@detail@1@@Z
	??$?0U?$less@V?$basic_string@DU?$char_traits@D@std@@V?$allocator@D@2@@std@@@std@@U_One_then_variadic_args_t@1@V?$allocator@U?$_Tree_node@U?$pair@$$CBV?$basic_string@DU?$char_traits@D@std@@V?$allocator@D@2@@std@@V?$shared_ptr@VJointMimic@urdf@@@2@@std@@PEAX@std@@@1@@?$_Compressed_pair@U?$less@V?$basic_string@DU?$char_traits@D@std@@V?$allocator@D@2@@std@@@std@@V?$_Compressed_pair@V?$allocator@U?$_Tree_node@U?$pair@$$CBV?$basic_string@DU?$char_traits@D@std@@V?$allocator@D@2@@std@@V?$shared_ptr@VJointMimic@urdf@@@2@@std@@PEAX@std@@@std@@V?$_Tree_val@U?$_Tree_simple_types@U?$pair@$$CBV?$basic_string@DU?$char_traits@D@std@@V?$allocator@D@2@@std@@V?$shared_ptr@VJointMimic@urdf@@@2@@std@@@std@@@2@$00@2@$00@std@@QEAA@U_One_then_variadic_args_t@1@$$QEAU?$less@V?$basic_string@DU?$char_traits@D@std@@V?$allocator@D@2@@std@@@1@$$QEAU21@$$QEAV?$allocator@U?$_Tree_node@U?$pair@$$CBV?$basic_string@DU?$char_traits@D@std@@V?$allocator@D@2@@std@@V?$shared_ptr@VJointMimic@urdf@@@2@@std@@PEAX@std@@@1@@Z
	??$?0U?$pair@V?$basic_string@DU?$char_traits@D@std@@V?$allocator@D@2@@std@@N@std@@@?$_Tree_temp_node@V?$allocator@U?$_Tree_node@U?$pair@$$CBV?$basic_string@DU?$char_traits@D@std@@V?$allocator@D@2@@std@@N@std@@PEAX@std@@@std@@@std@@QEAA@AEAV?$allocator@U?$_Tree_node@U?$pair@$$CBV?$basic_string@DU?$char_traits@D@std@@V?$allocator@D@2@@std@@N@std@@PEAX@std@@@1@PEAU?$_Tree_node@U?$pair@$$CBV?$basic_string@DU?$char_traits@D@std@@V?$allocator@D@2@@std@@N@std@@PEAX@1@$$QEAU?$pair@V?$basic_string@DU?$char_traits@D@std@@V?$allocator@D@2@@std@@N@1@@Z
	??$?0U?$pair@V?$basic_string@DU?$char_traits@D@std@@V?$allocator@D@2@@std@@V?$shared_ptr@VJointMimic@urdf@@@2@@std@@@?$_Tree_temp_node@V?$allocator@U?$_Tree_node@U?$pair@$$CBV?$basic_string@DU?$char_traits@D@std@@V?$allocator@D@2@@std@@V?$shared_ptr@VJointMimic@urdf@@@2@@std@@PEAX@std@@@std@@@std@@QEAA@AEAV?$allocator@U?$_Tree_node@U?$pair@$$CBV?$basic_string@DU?$char_traits@D@std@@V?$allocator@D@2@@std@@V?$shared_ptr@VJointMimic@urdf@@@2@@std@@PEAX@std@@@1@PEAU?$_Tree_node@U?$pair@$$CBV?$basic_string@DU?$char_traits@D@std@@V?$allocator@D@2@@std@@V?$shared_ptr@VJointMimic@urdf@@@2@@std@@PEAX@1@$$QEAU?$pair@V?$basic_string@DU?$char_traits@D@std@@V?$allocator@D@2@@std@@V?$shared_ptr@VJointMimic@urdf@@@2@@1@@Z
	??$?0U_Exact_args_t@std@@$0A@@?$tuple@$$V@std@@QEAA@U_Exact_args_t@1@@Z
	??$?0U_Exact_args_t@std@@AEBV?$basic_string@DU?$char_traits@D@std@@V?$allocator@D@2@@1@$$V$0A@@?$tuple@AEBV?$basic_string@DU?$char_traits@D@std@@V?$allocator@D@2@@std@@@std@@QEAA@U_Exact_args_t@1@AEBV?$basic_string@DU?$char_traits@D@std@@V?$allocator@D@2@@1@@Z
	??$?0V?$SubscriptionCallbackHelperT@AEBV?$shared_ptr@$$CBU?$JointState_@V?$allocator@X@std@@@sensor_msgs@@@boost@@X@ros@@@?$shared_ptr@V?$SubscriptionCallbackHelperT@AEBV?$shared_ptr@$$CBU?$JointState_@V?$allocator@X@std@@@sensor_msgs@@@boost@@X@ros@@@boost@@QEAA@AEBV01@PEAV?$SubscriptionCallbackHelperT@AEBV?$shared_ptr@$$CBU?$JointState_@V?$allocator@X@std@@@sensor_msgs@@@boost@@X@ros@@@Z
	??$?0V?$SubscriptionCallbackHelperT@AEBV?$shared_ptr@$$CBU?$JointState_@V?$allocator@X@std@@@sensor_msgs@@@boost@@X@ros@@@?$shared_ptr@VSubscriptionCallbackHelper@ros@@@boost@@QEAA@$$QEAV?$shared_ptr@V?$SubscriptionCallbackHelperT@AEBV?$shared_ptr@$$CBU?$JointState_@V?$allocator@X@std@@@sensor_msgs@@@boost@@X@ros@@@1@Usp_empty@detail@1@@Z
	??$?0V?$SubscriptionCallbackHelperT@AEBV?$shared_ptr@$$CBU?$JointState_@V?$allocator@X@std@@@sensor_msgs@@@boost@@X@ros@@U?$sp_inplace_tag@V?$sp_ms_deleter@V?$SubscriptionCallbackHelperT@AEBV?$shared_ptr@$$CBU?$JointState_@V?$allocator@X@std@@@sensor_msgs@@@boost@@X@ros@@@detail@boost@@@detail@boost@@@?$shared_ptr@V?$SubscriptionCallbackHelperT@AEBV?$shared_ptr@$$CBU?$JointState_@V?$allocator@X@std@@@sensor_msgs@@@boost@@X@ros@@@boost@@QEAA@PEAV?$SubscriptionCallbackHelperT@AEBV?$shared_ptr@$$CBU?$JointState_@V?$allocator@X@std@@@sensor_msgs@@@boost@@X@ros@@U?$sp_inplace_tag@V?$sp_ms_deleter@V?$SubscriptionCallbackHelperT@AEBV?$shared_ptr@$$CBU?$JointState_@V?$allocator@X@std@@@sensor_msgs@@@boost@@X@ros@@@detail@boost@@@detail@1@@Z
	??$?0V?$_Tree_iterator@V?$_Tree_val@U?$_Tree_simple_types@U?$pair@$$CBV?$basic_string@DU?$char_traits@D@std@@V?$allocator@D@2@@std@@N@std@@@std@@@std@@@std@@AEB_N$0A@@?$pair@V?$_Tree_iterator@V?$_Tree_val@U?$_Tree_simple_types@U?$pair@$$CBV?$basic_string@DU?$char_traits@D@std@@V?$allocator@D@2@@std@@N@std@@@std@@@std@@@std@@_N@std@@QEAA@$$QEAV?$_Tree_iterator@V?$_Tree_val@U?$_Tree_simple_types@U?$pair@$$CBV?$basic_string@DU?$char_traits@D@std@@V?$allocator@D@2@@std@@N@std@@@std@@@std@@@1@AEB_N@Z
	??$?0V?$_Tree_iterator@V?$_Tree_val@U?$_Tree_simple_types@U?$pair@$$CBV?$basic_string@DU?$char_traits@D@std@@V?$allocator@D@2@@std@@V?$shared_ptr@VJointMimic@urdf@@@2@@std@@@std@@@std@@@std@@AEB_N$0A@@?$pair@V?$_Tree_iterator@V?$_Tree_val@U?$_Tree_simple_types@U?$pair@$$CBV?$basic_string@DU?$char_traits@D@std@@V?$allocator@D@2@@std@@V?$shared_ptr@VJointMimic@urdf@@@2@@std@@@std@@@std@@@std@@_N@std@@QEAA@$$QEAV?$_Tree_iterator@V?$_Tree_val@U?$_Tree_simple_types@U?$pair@$$CBV?$basic_string@DU?$char_traits@D@std@@V?$allocator@D@2@@std@@V?$shared_ptr@VJointMimic@urdf@@@2@@std@@@std@@@std@@@1@AEB_N@Z
	??$?0V?$allocator@D@std@@$$V@?$_Compressed_pair@V?$allocator@D@std@@V?$_String_val@U?$_Simple_types@D@std@@@2@$00@std@@QEAA@U_One_then_variadic_args_t@1@$$QEAV?$allocator@D@1@@Z
	??$?0V?$allocator@U?$_Tree_node@U?$pair@$$CBV?$basic_string@DU?$char_traits@D@std@@V?$allocator@D@2@@std@@V?$shared_ptr@VJointMimic@urdf@@@2@@std@@PEAX@std@@@std@@$$V@?$_Compressed_pair@V?$allocator@U?$_Tree_node@U?$pair@$$CBV?$basic_string@DU?$char_traits@D@std@@V?$allocator@D@2@@std@@V?$shared_ptr@VJointMimic@urdf@@@2@@std@@PEAX@std@@@std@@V?$_Tree_val@U?$_Tree_simple_types@U?$pair@$$CBV?$basic_string@DU?$char_traits@D@std@@V?$allocator@D@2@@std@@V?$shared_ptr@VJointMimic@urdf@@@2@@std@@@std@@@2@$00@std@@QEAA@U_One_then_variadic_args_t@1@$$QEAV?$allocator@U?$_Tree_node@U?$pair@$$CBV?$basic_string@DU?$char_traits@D@std@@V?$allocator@D@2@@std@@V?$shared_ptr@VJointMimic@urdf@@@2@@std@@PEAX@std@@@1@@Z
	??$?0V?$allocator@U?$_Tree_node@U?$pair@$$CBV?$basic_string@DU?$char_traits@D@std@@V?$allocator@D@2@@std@@V?$shared_ptr@VJointMimic@urdf@@@2@@std@@PEAX@std@@@std@@@?$_Tree@V?$_Tmap_traits@V?$basic_string@DU?$char_traits@D@std@@V?$allocator@D@2@@std@@V?$shared_ptr@VJointMimic@urdf@@@2@U?$less@V?$basic_string@DU?$char_traits@D@std@@V?$allocator@D@2@@std@@@2@V?$allocator@U?$pair@$$CBV?$basic_string@DU?$char_traits@D@std@@V?$allocator@D@2@@std@@V?$shared_ptr@VJointMimic@urdf@@@2@@std@@@2@$0A@@std@@@std@@QEAA@AEBV01@$$QEAV?$allocator@U?$_Tree_node@U?$pair@$$CBV?$basic_string@DU?$char_traits@D@std@@V?$allocator@D@2@@std@@V?$shared_ptr@VJointMimic@urdf@@@2@@std@@PEAX@std@@@1@@Z
	??$?0V?$basic_string@DU?$char_traits@D@std@@V?$allocator@D@2@@std@@N$0A@@?$pair@$$CBV?$basic_string@DU?$char_traits@D@std@@V?$allocator@D@2@@std@@N@std@@QEAA@$$QEAU?$pair@V?$basic_string@DU?$char_traits@D@std@@V?$allocator@D@2@@std@@N@1@@Z
	??$?0V?$basic_string@DU?$char_traits@D@std@@V?$allocator@D@2@@std@@N$0A@@?$pair@V?$basic_string@DU?$char_traits@D@std@@V?$allocator@D@2@@std@@N@std@@QEAA@AEBV?$basic_string@DU?$char_traits@D@std@@V?$allocator@D@2@@1@AEBN@Z
	??$?0V?$basic_string@DU?$char_traits@D@std@@V?$allocator@D@2@@std@@V?$shared_ptr@VJointMimic@urdf@@@1@$0A@@?$pair@$$CBV?$basic_string@DU?$char_traits@D@std@@V?$allocator@D@2@@std@@V?$shared_ptr@VJointMimic@urdf@@@2@@std@@QEAA@$$QEAU?$pair@V?$basic_string@DU?$char_traits@D@std@@V?$allocator@D@2@@std@@V?$shared_ptr@VJointMimic@urdf@@@2@@1@@Z
	??$?0V?$bind_t@XV?$mf1@XVJointStateListener@robot_state_publisher@@AEBUTimerEvent@ros@@@_mfi@boost@@V?$list2@V?$value@PEAVJointStateListener@robot_state_publisher@@@_bi@boost@@U?$arg@$00@3@@_bi@3@@_bi@boost@@@?$function1@XAEBUTimerEvent@ros@@@boost@@QEAA@V?$bind_t@XV?$mf1@XVJointStateListener@robot_state_publisher@@AEBUTimerEvent@ros@@@_mfi@boost@@V?$list2@V?$value@PEAVJointStateListener@robot_state_publisher@@@_bi@boost@@U?$arg@$00@3@@_bi@3@@_bi@1@H@Z
	??$?0V?$bind_t@XV?$mf1@XVJointStateListener@robot_state_publisher@@AEBUTimerEvent@ros@@@_mfi@boost@@V?$list2@V?$value@PEAVJointStateListener@robot_state_publisher@@@_bi@boost@@U?$arg@$00@3@@_bi@3@@_bi@boost@@@?$function@$$A6AXAEBUTimerEvent@ros@@@Z@boost@@QEAA@V?$bind_t@XV?$mf1@XVJointStateListener@robot_state_publisher@@AEBUTimerEvent@ros@@@_mfi@boost@@V?$list2@V?$value@PEAVJointStateListener@robot_state_publisher@@@_bi@boost@@U?$arg@$00@3@@_bi@3@@_bi@1@H@Z
	??$?0V?$bind_t@XV?$mf1@XVJointStateListener@robot_state_publisher@@AEBV?$shared_ptr@$$CBU?$JointState_@V?$allocator@X@std@@@sensor_msgs@@@boost@@@_mfi@boost@@V?$list2@V?$value@PEAVJointStateListener@robot_state_publisher@@@_bi@boost@@U?$arg@$00@3@@_bi@3@@_bi@boost@@@?$function1@XAEBV?$shared_ptr@$$CBU?$JointState_@V?$allocator@X@std@@@sensor_msgs@@@boost@@@boost@@QEAA@V?$bind_t@XV?$mf1@XVJointStateListener@robot_state_publisher@@AEBV?$shared_ptr@$$CBU?$JointState_@V?$allocator@X@std@@@sensor_msgs@@@boost@@@_mfi@boost@@V?$list2@V?$value@PEAVJointStateListener@robot_state_publisher@@@_bi@boost@@U?$arg@$00@3@@_bi@3@@_bi@1@H@Z
	??$?0V?$bind_t@XV?$mf1@XVJointStateListener@robot_state_publisher@@AEBV?$shared_ptr@$$CBU?$JointState_@V?$allocator@X@std@@@sensor_msgs@@@boost@@@_mfi@boost@@V?$list2@V?$value@PEAVJointStateListener@robot_state_publisher@@@_bi@boost@@U?$arg@$00@3@@_bi@3@@_bi@boost@@@?$function@$$A6AXAEBV?$shared_ptr@$$CBU?$JointState_@V?$allocator@X@std@@@sensor_msgs@@@boost@@@Z@boost@@QEAA@V?$bind_t@XV?$mf1@XVJointStateListener@robot_state_publisher@@AEBV?$shared_ptr@$$CBU?$JointState_@V?$allocator@X@std@@@sensor_msgs@@@boost@@@_mfi@boost@@V?$list2@V?$value@PEAVJointStateListener@robot_state_publisher@@@_bi@boost@@U?$arg@$00@3@@_bi@3@@_bi@1@H@Z
	??$?0V?$function@$$A6AXAEBV?$shared_ptr@$$CBU?$JointState_@V?$allocator@X@std@@@sensor_msgs@@@boost@@@Z@boost@@@?$function1@XV?$shared_ptr@$$CBU?$JointState_@V?$allocator@X@std@@@sensor_msgs@@@boost@@@boost@@QEAA@V?$function@$$A6AXAEBV?$shared_ptr@$$CBU?$JointState_@V?$allocator@X@std@@@sensor_msgs@@@boost@@@Z@1@H@Z
	??$?0V?$function@$$A6AXAEBV?$shared_ptr@$$CBU?$JointState_@V?$allocator@X@std@@@sensor_msgs@@@boost@@@Z@boost@@@?$function@$$A6AXV?$shared_ptr@$$CBU?$JointState_@V?$allocator@X@std@@@sensor_msgs@@@boost@@@Z@boost@@QEAA@V?$function@$$A6AXAEBV?$shared_ptr@$$CBU?$JointState_@V?$allocator@X@std@@@sensor_msgs@@@boost@@@Z@1@H@Z
	??$?0V?$tuple@AEBV?$basic_string@DU?$char_traits@D@std@@V?$allocator@D@2@@std@@@std@@V?$tuple@$$V@1@$0A@$$Z$S@?$pair@$$CBV?$basic_string@DU?$char_traits@D@std@@V?$allocator@D@2@@std@@N@std@@QEAA@AEAV?$tuple@AEBV?$basic_string@DU?$char_traits@D@std@@V?$allocator@D@2@@std@@@1@AEAV?$tuple@$$V@1@U?$integer_sequence@_K$0A@@1@U?$integer_sequence@_K$S@1@@Z
	??$?0V?$tuple@AEBV?$basic_string@DU?$char_traits@D@std@@V?$allocator@D@2@@std@@@std@@V?$tuple@$$V@1@$0A@$$Z$S@?$pair@$$CBV?$basic_string@DU?$char_traits@D@std@@V?$allocator@D@2@@std@@VTime@ros@@@std@@QEAA@AEAV?$tuple@AEBV?$basic_string@DU?$char_traits@D@std@@V?$allocator@D@2@@std@@@1@AEAV?$tuple@$$V@1@U?$integer_sequence@_K$0A@@1@U?$integer_sequence@_K$S@1@@Z
	??$?0X@?$shared_ptr@$$CBX@boost@@QEAA@$$QEAV?$shared_ptr@X@1@Usp_empty@detail@1@@Z
	??$?4V?$SubscriptionCallbackHelperT@AEBV?$shared_ptr@$$CBU?$JointState_@V?$allocator@X@std@@@sensor_msgs@@@boost@@X@ros@@@?$shared_ptr@VSubscriptionCallbackHelper@ros@@@boost@@QEAAAEAV01@$$QEAV?$shared_ptr@V?$SubscriptionCallbackHelperT@AEBV?$shared_ptr@$$CBU?$JointState_@V?$allocator@X@std@@@sensor_msgs@@@boost@@X@ros@@@1@@Z
	??$?8DU?$char_traits@D@std@@V?$allocator@D@1@@std@@YA_NAEBV?$basic_string@DU?$char_traits@D@std@@V?$allocator@D@2@@0@QEBD@Z
	??$?8Vstl_type_index@typeindex@boost@@Vtype_info@@@typeindex@boost@@YA_NAEBV?$type_index_facade@Vstl_type_index@typeindex@boost@@Vtype_info@@@01@0@Z
	??$?8Vstl_type_index@typeindex@boost@@Vtype_info@@@typeindex@boost@@YA_NAEBVtype_info@@AEBV?$type_index_facade@Vstl_type_index@typeindex@boost@@Vtype_info@@@01@@Z
	??$?APEAVJointStateListener@robot_state_publisher@@@?$rrlist1@AEBUTimerEvent@ros@@@_bi@boost@@QEBAAEAPEAVJointStateListener@robot_state_publisher@@AEAV?$value@PEAVJointStateListener@robot_state_publisher@@@12@@Z
	??$?APEAVJointStateListener@robot_state_publisher@@@?$rrlist1@AEBV?$shared_ptr@$$CBU?$JointState_@V?$allocator@X@std@@@sensor_msgs@@@boost@@@_bi@boost@@QEBAAEAPEAVJointStateListener@robot_state_publisher@@AEAV?$value@PEAVJointStateListener@robot_state_publisher@@@12@@Z
	??$?CVJoint@urdf@@$0A@@?$shared_ptr@VJoint@urdf@@@std@@QEBAPEAVJoint@urdf@@XZ
	??$?CVJointMimic@urdf@@$0A@@?$shared_ptr@VJointMimic@urdf@@@std@@QEBAPEAVJointMimic@urdf@@XZ
	??$?MDU?$char_traits@D@std@@V?$allocator@D@1@@std@@YA_NAEBV?$basic_string@DU?$char_traits@D@std@@V?$allocator@D@2@@0@0@Z
	??$?RAEBUTimerEvent@ros@@@?$bind_t@XV?$mf1@XVJointStateListener@robot_state_publisher@@AEBUTimerEvent@ros@@@_mfi@boost@@V?$list2@V?$value@PEAVJointStateListener@robot_state_publisher@@@_bi@boost@@U?$arg@$00@3@@_bi@3@@_bi@boost@@QEAAXAEBUTimerEvent@ros@@@Z
	??$?RAEBV?$shared_ptr@$$CBU?$JointState_@V?$allocator@X@std@@@sensor_msgs@@@boost@@@?$bind_t@XV?$mf1@XVJointStateListener@robot_state_publisher@@AEBV?$shared_ptr@$$CBU?$JointState_@V?$allocator@X@std@@@sensor_msgs@@@boost@@@_mfi@boost@@V?$list2@V?$value@PEAVJointStateListener@robot_state_publisher@@@_bi@boost@@U?$arg@$00@3@@_bi@3@@_bi@boost@@QEAAXAEBV?$shared_ptr@$$CBU?$JointState_@V?$allocator@X@std@@@sensor_msgs@@@2@@Z
	??$?RV?$mf1@XVJointStateListener@robot_state_publisher@@AEBUTimerEvent@ros@@@_mfi@boost@@V?$rrlist1@AEBUTimerEvent@ros@@@_bi@2@@?$list2@V?$value@PEAVJointStateListener@robot_state_publisher@@@_bi@boost@@U?$arg@$00@3@@_bi@boost@@QEAAXV?$type@X@12@AEAV?$mf1@XVJointStateListener@robot_state_publisher@@AEBUTimerEvent@ros@@@_mfi@2@AEAV?$rrlist1@AEBUTimerEvent@ros@@@12@H@Z
	??$?RV?$mf1@XVJointStateListener@robot_state_publisher@@AEBV?$shared_ptr@$$CBU?$JointState_@V?$allocator@X@std@@@sensor_msgs@@@boost@@@_mfi@boost@@V?$rrlist1@AEBV?$shared_ptr@$$CBU?$JointState_@V?$allocator@X@std@@@sensor_msgs@@@boost@@@_bi@2@@?$list2@V?$value@PEAVJointStateListener@robot_state_publisher@@@_bi@boost@@U?$arg@$00@3@@_bi@boost@@QEAAXV?$type@X@12@AEAV?$mf1@XVJointStateListener@robot_state_publisher@@AEBV?$shared_ptr@$$CBU?$JointState_@V?$allocator@X@std@@@sensor_msgs@@@boost@@@_mfi@2@AEAV?$rrlist1@AEBV?$shared_ptr@$$CBU?$JointState_@V?$allocator@X@std@@@sensor_msgs@@@boost@@@12@H@Z
	??$_Adl_verify_range@PEANPEAN@std@@YAXAEBQEAN0@Z
	??$_Adl_verify_range@PEAV?$basic_string@DU?$char_traits@D@std@@V?$allocator@D@2@@std@@PEAV12@@std@@YAXAEBQEAV?$basic_string@DU?$char_traits@D@std@@V?$allocator@D@2@@0@0@Z
	??$_Allocate@$0BA@U_Default_allocate_traits@std@@$0A@@std@@YAPEAX_K@Z
	??$_Allocate_manually_vector_aligned@U_Default_allocate_traits@std@@@std@@YAPEAX_K@Z
	??$_Assign_range@PEAN@?$vector@NV?$allocator@N@std@@@std@@AEAAXPEAN0Uforward_iterator_tag@1@@Z
	??$_Assign_range@PEAV?$basic_string@DU?$char_traits@D@std@@V?$allocator@D@2@@std@@@?$vector@V?$basic_string@DU?$char_traits@D@std@@V?$allocator@D@2@@std@@V?$allocator@V?$basic_string@DU?$char_traits@D@std@@V?$allocator@D@2@@std@@@2@@std@@AEAAXPEAV?$basic_string@DU?$char_traits@D@std@@V?$allocator@D@2@@1@0Uforward_iterator_tag@1@@Z
	??$_Atomic_address_as@JU?$_Atomic_padded@H@std@@@std@@YAPECJAEAU?$_Atomic_padded@H@0@@Z
	??$_Buyheadnode@V?$allocator@U?$_Tree_node@U?$pair@$$CBV?$basic_string@DU?$char_traits@D@std@@V?$allocator@D@2@@std@@N@std@@PEAX@std@@@std@@@?$_Tree_node@U?$pair@$$CBV?$basic_string@DU?$char_traits@D@std@@V?$allocator@D@2@@std@@N@std@@PEAX@std@@SAPEAU01@AEAV?$allocator@U?$_Tree_node@U?$pair@$$CBV?$basic_string@DU?$char_traits@D@std@@V?$allocator@D@2@@std@@N@std@@PEAX@std@@@1@@Z
	??$_Buyheadnode@V?$allocator@U?$_Tree_node@U?$pair@$$CBV?$basic_string@DU?$char_traits@D@std@@V?$allocator@D@2@@std@@V12@@std@@PEAX@std@@@std@@@?$_Tree_node@U?$pair@$$CBV?$basic_string@DU?$char_traits@D@std@@V?$allocator@D@2@@std@@V12@@std@@PEAX@std@@SAPEAU01@AEAV?$allocator@U?$_Tree_node@U?$pair@$$CBV?$basic_string@DU?$char_traits@D@std@@V?$allocator@D@2@@std@@V12@@std@@PEAX@std@@@1@@Z
	??$_Buyheadnode@V?$allocator@U?$_Tree_node@U?$pair@$$CBV?$basic_string@DU?$char_traits@D@std@@V?$allocator@D@2@@std@@V?$shared_ptr@VJoint@urdf@@@2@@std@@PEAX@std@@@std@@@?$_Tree_node@U?$pair@$$CBV?$basic_string@DU?$char_traits@D@std@@V?$allocator@D@2@@std@@V?$shared_ptr@VJoint@urdf@@@2@@std@@PEAX@std@@SAPEAU01@AEAV?$allocator@U?$_Tree_node@U?$pair@$$CBV?$basic_string@DU?$char_traits@D@std@@V?$allocator@D@2@@std@@V?$shared_ptr@VJoint@urdf@@@2@@std@@PEAX@std@@@1@@Z
	??$_Buyheadnode@V?$allocator@U?$_Tree_node@U?$pair@$$CBV?$basic_string@DU?$char_traits@D@std@@V?$allocator@D@2@@std@@V?$shared_ptr@VJointMimic@urdf@@@2@@std@@PEAX@std@@@std@@@?$_Tree_node@U?$pair@$$CBV?$basic_string@DU?$char_traits@D@std@@V?$allocator@D@2@@std@@V?$shared_ptr@VJointMimic@urdf@@@2@@std@@PEAX@std@@SAPEAU01@AEAV?$allocator@U?$_Tree_node@U?$pair@$$CBV?$basic_string@DU?$char_traits@D@std@@V?$allocator@D@2@@std@@V?$shared_ptr@VJointMimic@urdf@@@2@@std@@PEAX@std@@@1@@Z
	??$_Buyheadnode@V?$allocator@U?$_Tree_node@U?$pair@$$CBV?$basic_string@DU?$char_traits@D@std@@V?$allocator@D@2@@std@@V?$shared_ptr@VLink@urdf@@@2@@std@@PEAX@std@@@std@@@?$_Tree_node@U?$pair@$$CBV?$basic_string@DU?$char_traits@D@std@@V?$allocator@D@2@@std@@V?$shared_ptr@VLink@urdf@@@2@@std@@PEAX@std@@SAPEAU01@AEAV?$allocator@U?$_Tree_node@U?$pair@$$CBV?$basic_string@DU?$char_traits@D@std@@V?$allocator@D@2@@std@@V?$shared_ptr@VLink@urdf@@@2@@std@@PEAX@std@@@1@@Z
	??$_Buyheadnode@V?$allocator@U?$_Tree_node@U?$pair@$$CBV?$basic_string@DU?$char_traits@D@std@@V?$allocator@D@2@@std@@V?$shared_ptr@VMaterial@urdf@@@2@@std@@PEAX@std@@@std@@@?$_Tree_node@U?$pair@$$CBV?$basic_string@DU?$char_traits@D@std@@V?$allocator@D@2@@std@@V?$shared_ptr@VMaterial@urdf@@@2@@std@@PEAX@std@@SAPEAU01@AEAV?$allocator@U?$_Tree_node@U?$pair@$$CBV?$basic_string@DU?$char_traits@D@std@@V?$allocator@D@2@@std@@V?$shared_ptr@VMaterial@urdf@@@2@@std@@PEAX@std@@@1@@Z
	??$_Buyheadnode@V?$allocator@U?$_Tree_node@U?$pair@$$CBV?$basic_string@DU?$char_traits@D@std@@V?$allocator@D@2@@std@@VTime@ros@@@std@@PEAX@std@@@std@@@?$_Tree_node@U?$pair@$$CBV?$basic_string@DU?$char_traits@D@std@@V?$allocator@D@2@@std@@VTime@ros@@@std@@PEAX@std@@SAPEAU01@AEAV?$allocator@U?$_Tree_node@U?$pair@$$CBV?$basic_string@DU?$char_traits@D@std@@V?$allocator@D@2@@std@@VTime@ros@@@std@@PEAX@std@@@1@@Z
	??$_Buynode@AEAU?$pair@$$CBV?$basic_string@DU?$char_traits@D@std@@V?$allocator@D@2@@std@@V?$shared_ptr@VJointMimic@urdf@@@2@@std@@@?$_Tree@V?$_Tmap_traits@V?$basic_string@DU?$char_traits@D@std@@V?$allocator@D@2@@std@@V?$shared_ptr@VJointMimic@urdf@@@2@U?$less@V?$basic_string@DU?$char_traits@D@std@@V?$allocator@D@2@@std@@@2@V?$allocator@U?$pair@$$CBV?$basic_string@DU?$char_traits@D@std@@V?$allocator@D@2@@std@@V?$shared_ptr@VJointMimic@urdf@@@2@@std@@@2@$0A@@std@@@std@@IEAAPEAU?$_Tree_node@U?$pair@$$CBV?$basic_string@DU?$char_traits@D@std@@V?$allocator@D@2@@std@@V?$shared_ptr@VJointMimic@urdf@@@2@@std@@PEAX@1@AEAU?$pair@$$CBV?$basic_string@DU?$char_traits@D@std@@V?$allocator@D@2@@std@@V?$shared_ptr@VJointMimic@urdf@@@2@@1@@Z
	??$_Buynode@V?$allocator@U?$_Tree_node@U?$pair@$$CBV?$basic_string@DU?$char_traits@D@std@@V?$allocator@D@2@@std@@V?$shared_ptr@VJointMimic@urdf@@@2@@std@@PEAX@std@@@std@@AEAU?$pair@$$CBV?$basic_string@DU?$char_traits@D@std@@V?$allocator@D@2@@std@@V?$shared_ptr@VJointMimic@urdf@@@2@@2@@?$_Tree_node@U?$pair@$$CBV?$basic_string@DU?$char_traits@D@std@@V?$allocator@D@2@@std@@V?$shared_ptr@VJointMimic@urdf@@@2@@std@@PEAX@std@@SAPEAU01@AEAV?$allocator@U?$_Tree_node@U?$pair@$$CBV?$basic_string@DU?$char_traits@D@std@@V?$allocator@D@2@@std@@V?$shared_ptr@VJointMimic@urdf@@@2@@std@@PEAX@std@@@1@PEAU01@AEAU?$pair@$$CBV?$basic_string@DU?$char_traits@D@std@@V?$allocator@D@2@@std@@V?$shared_ptr@VJointMimic@urdf@@@2@@1@@Z
	??$_Construct_in_place@PEADAEBQEAD@std@@YAXAEAPEADAEBQEAD@Z
	??$_Construct_in_place@PEAU?$_Tree_node@U?$pair@$$CBV?$basic_string@DU?$char_traits@D@std@@V?$allocator@D@2@@std@@N@std@@PEAX@std@@AEAPEAU12@@std@@YAXAEAPEAU?$_Tree_node@U?$pair@$$CBV?$basic_string@DU?$char_traits@D@std@@V?$allocator@D@2@@std@@N@std@@PEAX@0@0@Z
	??$_Construct_in_place@PEAU?$_Tree_node@U?$pair@$$CBV?$basic_string@DU?$char_traits@D@std@@V?$allocator@D@2@@std@@N@std@@PEAX@std@@AEBQEAU12@@std@@YAXAEAPEAU?$_Tree_node@U?$pair@$$CBV?$basic_string@DU?$char_traits@D@std@@V?$allocator@D@2@@std@@N@std@@PEAX@0@AEBQEAU10@@Z
	??$_Construct_in_place@PEAU?$_Tree_node@U?$pair@$$CBV?$basic_string@DU?$char_traits@D@std@@V?$allocator@D@2@@std@@V12@@std@@PEAX@std@@AEBQEAU12@@std@@YAXAEAPEAU?$_Tree_node@U?$pair@$$CBV?$basic_string@DU?$char_traits@D@std@@V?$allocator@D@2@@std@@V12@@std@@PEAX@0@AEBQEAU10@@Z
	??$_Construct_in_place@PEAU?$_Tree_node@U?$pair@$$CBV?$basic_string@DU?$char_traits@D@std@@V?$allocator@D@2@@std@@V?$shared_ptr@VJoint@urdf@@@2@@std@@PEAX@std@@AEBQEAU12@@std@@YAXAEAPEAU?$_Tree_node@U?$pair@$$CBV?$basic_string@DU?$char_traits@D@std@@V?$allocator@D@2@@std@@V?$shared_ptr@VJoint@urdf@@@2@@std@@PEAX@0@AEBQEAU10@@Z
	??$_Construct_in_place@PEAU?$_Tree_node@U?$pair@$$CBV?$basic_string@DU?$char_traits@D@std@@V?$allocator@D@2@@std@@V?$shared_ptr@VJointMimic@urdf@@@2@@std@@PEAX@std@@AEAPEAU12@@std@@YAXAEAPEAU?$_Tree_node@U?$pair@$$CBV?$basic_string@DU?$char_traits@D@std@@V?$allocator@D@2@@std@@V?$shared_ptr@VJointMimic@urdf@@@2@@std@@PEAX@0@0@Z
	??$_Construct_in_place@PEAU?$_Tree_node@U?$pair@$$CBV?$basic_string@DU?$char_traits@D@std@@V?$allocator@D@2@@std@@V?$shared_ptr@VJointMimic@urdf@@@2@@std@@PEAX@std@@AEBQEAU12@@std@@YAXAEAPEAU?$_Tree_node@U?$pair@$$CBV?$basic_string@DU?$char_traits@D@std@@V?$allocator@D@2@@std@@V?$shared_ptr@VJointMimic@urdf@@@2@@std@@PEAX@0@AEBQEAU10@@Z
	??$_Construct_in_place@PEAU?$_Tree_node@U?$pair@$$CBV?$basic_string@DU?$char_traits@D@std@@V?$allocator@D@2@@std@@V?$shared_ptr@VLink@urdf@@@2@@std@@PEAX@std@@AEBQEAU12@@std@@YAXAEAPEAU?$_Tree_node@U?$pair@$$CBV?$basic_string@DU?$char_traits@D@std@@V?$allocator@D@2@@std@@V?$shared_ptr@VLink@urdf@@@2@@std@@PEAX@0@AEBQEAU10@@Z
	??$_Construct_in_place@PEAU?$_Tree_node@U?$pair@$$CBV?$basic_string@DU?$char_traits@D@std@@V?$allocator@D@2@@std@@V?$shared_ptr@VMaterial@urdf@@@2@@std@@PEAX@std@@AEBQEAU12@@std@@YAXAEAPEAU?$_Tree_node@U?$pair@$$CBV?$basic_string@DU?$char_traits@D@std@@V?$allocator@D@2@@std@@V?$shared_ptr@VMaterial@urdf@@@2@@std@@PEAX@0@AEBQEAU10@@Z
	??$_Construct_in_place@PEAU?$_Tree_node@U?$pair@$$CBV?$basic_string@DU?$char_traits@D@std@@V?$allocator@D@2@@std@@VTime@ros@@@std@@PEAX@std@@AEAPEAU12@@std@@YAXAEAPEAU?$_Tree_node@U?$pair@$$CBV?$basic_string@DU?$char_traits@D@std@@V?$allocator@D@2@@std@@VTime@ros@@@std@@PEAX@0@0@Z
	??$_Construct_in_place@PEAU?$_Tree_node@U?$pair@$$CBV?$basic_string@DU?$char_traits@D@std@@V?$allocator@D@2@@std@@VTime@ros@@@std@@PEAX@std@@AEBQEAU12@@std@@YAXAEAPEAU?$_Tree_node@U?$pair@$$CBV?$basic_string@DU?$char_traits@D@std@@V?$allocator@D@2@@std@@VTime@ros@@@std@@PEAX@0@AEBQEAU10@@Z
	??$_Convert_size@_K@std@@YA_K_K@Z
	??$_Copy@U_Copy_tag@?$_Tree@V?$_Tmap_traits@V?$basic_string@DU?$char_traits@D@std@@V?$allocator@D@2@@std@@V?$shared_ptr@VJointMimic@urdf@@@2@U?$less@V?$basic_string@DU?$char_traits@D@std@@V?$allocator@D@2@@std@@@2@V?$allocator@U?$pair@$$CBV?$basic_string@DU?$char_traits@D@std@@V?$allocator@D@2@@std@@V?$shared_ptr@VJointMimic@urdf@@@2@@std@@@2@$0A@@std@@@std@@@?$_Tree@V?$_Tmap_traits@V?$basic_string@DU?$char_traits@D@std@@V?$allocator@D@2@@std@@V?$shared_ptr@VJointMimic@urdf@@@2@U?$less@V?$basic_string@DU?$char_traits@D@std@@V?$allocator@D@2@@std@@@2@V?$allocator@U?$pair@$$CBV?$basic_string@DU?$char_traits@D@std@@V?$allocator@D@2@@std@@V?$shared_ptr@VJointMimic@urdf@@@2@@std@@@2@$0A@@std@@@std@@IEAAXAEBV01@U_Copy_tag@01@@Z
	??$_Copy_construct_from@VJointMimic@urdf@@@?$_Ptr_base@VJointMimic@urdf@@@std@@IEAAXAEBV?$shared_ptr@VJointMimic@urdf@@@1@@Z
	??$_Copy_memmove@PEANPEAN@std@@YAPEANPEAN00@Z
	??$_Copy_nodes@U_Copy_tag@?$_Tree@V?$_Tmap_traits@V?$basic_string@DU?$char_traits@D@std@@V?$allocator@D@2@@std@@V?$shared_ptr@VJointMimic@urdf@@@2@U?$less@V?$basic_string@DU?$char_traits@D@std@@V?$allocator@D@2@@std@@@2@V?$allocator@U?$pair@$$CBV?$basic_string@DU?$char_traits@D@std@@V?$allocator@D@2@@std@@V?$shared_ptr@VJointMimic@urdf@@@2@@std@@@2@$0A@@std@@@std@@@?$_Tree@V?$_Tmap_traits@V?$basic_string@DU?$char_traits@D@std@@V?$allocator@D@2@@std@@V?$shared_ptr@VJointMimic@urdf@@@2@U?$less@V?$basic_string@DU?$char_traits@D@std@@V?$allocator@D@2@@std@@@2@V?$allocator@U?$pair@$$CBV?$basic_string@DU?$char_traits@D@std@@V?$allocator@D@2@@std@@V?$shared_ptr@VJointMimic@urdf@@@2@@std@@@2@$0A@@std@@@std@@IEAAPEAU?$_Tree_node@U?$pair@$$CBV?$basic_string@DU?$char_traits@D@std@@V?$allocator@D@2@@std@@V?$shared_ptr@VJointMimic@urdf@@@2@@std@@PEAX@1@PEAU21@0U_Copy_tag@01@@Z
	??$_Copy_or_move@U?$pair@$$CBV?$basic_string@DU?$char_traits@D@std@@V?$allocator@D@2@@std@@V?$shared_ptr@VJointMimic@urdf@@@2@@std@@U?$integral_constant@_N$0A@@2@@?$_Tree@V?$_Tmap_traits@V?$basic_string@DU?$char_traits@D@std@@V?$allocator@D@2@@std@@V?$shared_ptr@VJointMimic@urdf@@@2@U?$less@V?$basic_string@DU?$char_traits@D@std@@V?$allocator@D@2@@std@@@2@V?$allocator@U?$pair@$$CBV?$basic_string@DU?$char_traits@D@std@@V?$allocator@D@2@@std@@V?$shared_ptr@VJointMimic@urdf@@@2@@std@@@2@$0A@@std@@@std@@IEAAPEAU?$_Tree_node@U?$pair@$$CBV?$basic_string@DU?$char_traits@D@std@@V?$allocator@D@2@@std@@V?$shared_ptr@VJointMimic@urdf@@@2@@std@@PEAX@1@AEAU?$pair@$$CBV?$basic_string@DU?$char_traits@D@std@@V?$allocator@D@2@@std@@V?$shared_ptr@VJointMimic@urdf@@@2@@1@U_Copy_tag@01@U?$integral_constant@_N$0A@@1@@Z
	??$_Copy_unchecked@PEAV?$basic_string@DU?$char_traits@D@std@@V?$allocator@D@2@@std@@PEAV12@@std@@YAPEAV?$basic_string@DU?$char_traits@D@std@@V?$allocator@D@2@@0@PEAV10@00@Z
	??$_Deallocate@$0BA@$0A@@std@@YAXPEAX_K@Z
	??$_Destroy_in_place@PEAD@std@@YAXAEAPEAD@Z
	??$_Destroy_in_place@PEAU?$_Tree_node@U?$pair@$$CBV?$basic_string@DU?$char_traits@D@std@@V?$allocator@D@2@@std@@N@std@@PEAX@std@@@std@@YAXAEAPEAU?$_Tree_node@U?$pair@$$CBV?$basic_string@DU?$char_traits@D@std@@V?$allocator@D@2@@std@@N@std@@PEAX@0@@Z
	??$_Destroy_in_place@PEAU?$_Tree_node@U?$pair@$$CBV?$basic_string@DU?$char_traits@D@std@@V?$allocator@D@2@@std@@V12@@std@@PEAX@std@@@std@@YAXAEAPEAU?$_Tree_node@U?$pair@$$CBV?$basic_string@DU?$char_traits@D@std@@V?$allocator@D@2@@std@@V12@@std@@PEAX@0@@Z
	??$_Destroy_in_place@PEAU?$_Tree_node@U?$pair@$$CBV?$basic_string@DU?$char_traits@D@std@@V?$allocator@D@2@@std@@V?$shared_ptr@VJoint@urdf@@@2@@std@@PEAX@std@@@std@@YAXAEAPEAU?$_Tree_node@U?$pair@$$CBV?$basic_string@DU?$char_traits@D@std@@V?$allocator@D@2@@std@@V?$shared_ptr@VJoint@urdf@@@2@@std@@PEAX@0@@Z
	??$_Destroy_in_place@PEAU?$_Tree_node@U?$pair@$$CBV?$basic_string@DU?$char_traits@D@std@@V?$allocator@D@2@@std@@V?$shared_ptr@VJointMimic@urdf@@@2@@std@@PEAX@std@@@std@@YAXAEAPEAU?$_Tree_node@U?$pair@$$CBV?$basic_string@DU?$char_traits@D@std@@V?$allocator@D@2@@std@@V?$shared_ptr@VJointMimic@urdf@@@2@@std@@PEAX@0@@Z
	??$_Destroy_in_place@PEAU?$_Tree_node@U?$pair@$$CBV?$basic_string@DU?$char_traits@D@std@@V?$allocator@D@2@@std@@V?$shared_ptr@VLink@urdf@@@2@@std@@PEAX@std@@@std@@YAXAEAPEAU?$_Tree_node@U?$pair@$$CBV?$basic_string@DU?$char_traits@D@std@@V?$allocator@D@2@@std@@V?$shared_ptr@VLink@urdf@@@2@@std@@PEAX@0@@Z
	??$_Destroy_in_place@PEAU?$_Tree_node@U?$pair@$$CBV?$basic_string@DU?$char_traits@D@std@@V?$allocator@D@2@@std@@V?$shared_ptr@VMaterial@urdf@@@2@@std@@PEAX@std@@@std@@YAXAEAPEAU?$_Tree_node@U?$pair@$$CBV?$basic_string@DU?$char_traits@D@std@@V?$allocator@D@2@@std@@V?$shared_ptr@VMaterial@urdf@@@2@@std@@PEAX@0@@Z
	??$_Destroy_in_place@PEAU?$_Tree_node@U?$pair@$$CBV?$basic_string@DU?$char_traits@D@std@@V?$allocator@D@2@@std@@VSegmentPair@robot_state_publisher@@@std@@PEAX@std@@@std@@YAXAEAPEAU?$_Tree_node@U?$pair@$$CBV?$basic_string@DU?$char_traits@D@std@@V?$allocator@D@2@@std@@VSegmentPair@robot_state_publisher@@@std@@PEAX@0@@Z
	??$_Destroy_in_place@PEAU?$_Tree_node@U?$pair@$$CBV?$basic_string@DU?$char_traits@D@std@@V?$allocator@D@2@@std@@VTime@ros@@@std@@PEAX@std@@@std@@YAXAEAPEAU?$_Tree_node@U?$pair@$$CBV?$basic_string@DU?$char_traits@D@std@@V?$allocator@D@2@@std@@VTime@ros@@@std@@PEAX@0@@Z
	??$_Destroy_in_place@PEAU?$_Tree_node@U?$pair@$$CBV?$basic_string@DU?$char_traits@D@std@@V?$allocator@D@2@@std@@VTreeElement@KDL@@@std@@PEAX@std@@@std@@YAXAEAPEAU?$_Tree_node@U?$pair@$$CBV?$basic_string@DU?$char_traits@D@std@@V?$allocator@D@2@@std@@VTreeElement@KDL@@@std@@PEAX@0@@Z
	??$_Destroy_range@V?$allocator@N@std@@@std@@YAXPEANQEANAEAV?$allocator@N@0@@Z
	??$_Destroy_range@V?$allocator@U?$TransformStamped_@V?$allocator@X@std@@@geometry_msgs@@@std@@@std@@YAXPEAU?$TransformStamped_@V?$allocator@X@std@@@geometry_msgs@@QEAU12@AEAV?$allocator@U?$TransformStamped_@V?$allocator@X@std@@@geometry_msgs@@@0@@Z
	??$_Destroy_range@V?$allocator@V?$_Tree_const_iterator@V?$_Tree_val@U?$_Tree_simple_types@U?$pair@$$CBV?$basic_string@DU?$char_traits@D@std@@V?$allocator@D@2@@std@@VTreeElement@KDL@@@std@@@std@@@std@@@std@@@std@@@std@@YAXPEAV?$_Tree_const_iterator@V?$_Tree_val@U?$_Tree_simple_types@U?$pair@$$CBV?$basic_string@DU?$char_traits@D@std@@V?$allocator@D@2@@std@@VTreeElement@KDL@@@std@@@std@@@std@@@0@QEAV10@AEAV?$allocator@V?$_Tree_const_iterator@V?$_Tree_val@U?$_Tree_simple_types@U?$pair@$$CBV?$basic_string@DU?$char_traits@D@std@@V?$allocator@D@2@@std@@VTreeElement@KDL@@@std@@@std@@@std@@@std@@@0@@Z
	??$_Destroy_range@V?$allocator@V?$basic_string@DU?$char_traits@D@std@@V?$allocator@D@2@@std@@@std@@@std@@YAXPEAV?$basic_string@DU?$char_traits@D@std@@V?$allocator@D@2@@0@QEAV10@AEAV?$allocator@V?$basic_string@DU?$char_traits@D@std@@V?$allocator@D@2@@std@@@0@@Z
	??$_Emplace@U?$pair@V?$basic_string@DU?$char_traits@D@std@@V?$allocator@D@2@@std@@N@std@@@?$_Tree@V?$_Tmap_traits@V?$basic_string@DU?$char_traits@D@std@@V?$allocator@D@2@@std@@NU?$less@V?$basic_string@DU?$char_traits@D@std@@V?$allocator@D@2@@std@@@2@V?$allocator@U?$pair@$$CBV?$basic_string@DU?$char_traits@D@std@@V?$allocator@D@2@@std@@N@std@@@2@$0A@@std@@@std@@IEAA?AU?$pair@PEAU?$_Tree_node@U?$pair@$$CBV?$basic_string@DU?$char_traits@D@std@@V?$allocator@D@2@@std@@N@std@@PEAX@std@@_N@1@$$QEAU?$pair@V?$basic_string@DU?$char_traits@D@std@@V?$allocator@D@2@@std@@N@1@@Z
	??$_Emplace@U?$pair@V?$basic_string@DU?$char_traits@D@std@@V?$allocator@D@2@@std@@V?$shared_ptr@VJointMimic@urdf@@@2@@std@@@?$_Tree@V?$_Tmap_traits@V?$basic_string@DU?$char_traits@D@std@@V?$allocator@D@2@@std@@V?$shared_ptr@VJointMimic@urdf@@@2@U?$less@V?$basic_string@DU?$char_traits@D@std@@V?$allocator@D@2@@std@@@2@V?$allocator@U?$pair@$$CBV?$basic_string@DU?$char_traits@D@std@@V?$allocator@D@2@@std@@V?$shared_ptr@VJointMimic@urdf@@@2@@std@@@2@$0A@@std@@@std@@IEAA?AU?$pair@PEAU?$_Tree_node@U?$pair@$$CBV?$basic_string@DU?$char_traits@D@std@@V?$allocator@D@2@@std@@V?$shared_ptr@VJointMimic@urdf@@@2@@std@@PEAX@std@@_N@1@$$QEAU?$pair@V?$basic_string@DU?$char_traits@D@std@@V?$allocator@D@2@@std@@V?$shared_ptr@VJointMimic@urdf@@@2@@1@@Z
	??$_Emplace_back@$$V@?$_Uninitialized_backout_al@V?$allocator@V?$basic_string@DU?$char_traits@D@std@@V?$allocator@D@2@@std@@@std@@@std@@QEAAXXZ
	??$_Emplace_back@AEAV?$basic_string@DU?$char_traits@D@std@@V?$allocator@D@2@@std@@@?$_Uninitialized_backout_al@V?$allocator@V?$basic_string@DU?$char_traits@D@std@@V?$allocator@D@2@@std@@@std@@@std@@QEAAXAEAV?$basic_string@DU?$char_traits@D@std@@V?$allocator@D@2@@1@@Z
	??$_Emplace_back@V?$basic_string@DU?$char_traits@D@std@@V?$allocator@D@2@@std@@@?$_Uninitialized_backout_al@V?$allocator@V?$basic_string@DU?$char_traits@D@std@@V?$allocator@D@2@@std@@@std@@@std@@QEAAX$$QEAV?$basic_string@DU?$char_traits@D@std@@V?$allocator@D@2@@1@@Z
	??$_Erase_head@V?$allocator@U?$_Tree_node@U?$pair@$$CBV?$basic_string@DU?$char_traits@D@std@@V?$allocator@D@2@@std@@N@std@@PEAX@std@@@std@@@?$_Tree_val@U?$_Tree_simple_types@U?$pair@$$CBV?$basic_string@DU?$char_traits@D@std@@V?$allocator@D@2@@std@@N@std@@@std@@@std@@QEAAXAEAV?$allocator@U?$_Tree_node@U?$pair@$$CBV?$basic_string@DU?$char_traits@D@std@@V?$allocator@D@2@@std@@N@std@@PEAX@std@@@1@@Z
	??$_Erase_head@V?$allocator@U?$_Tree_node@U?$pair@$$CBV?$basic_string@DU?$char_traits@D@std@@V?$allocator@D@2@@std@@V12@@std@@PEAX@std@@@std@@@?$_Tree_val@U?$_Tree_simple_types@U?$pair@$$CBV?$basic_string@DU?$char_traits@D@std@@V?$allocator@D@2@@std@@V12@@std@@@std@@@std@@QEAAXAEAV?$allocator@U?$_Tree_node@U?$pair@$$CBV?$basic_string@DU?$char_traits@D@std@@V?$allocator@D@2@@std@@V12@@std@@PEAX@std@@@1@@Z
	??$_Erase_head@V?$allocator@U?$_Tree_node@U?$pair@$$CBV?$basic_string@DU?$char_traits@D@std@@V?$allocator@D@2@@std@@V?$shared_ptr@VJoint@urdf@@@2@@std@@PEAX@std@@@std@@@?$_Tree_val@U?$_Tree_simple_types@U?$pair@$$CBV?$basic_string@DU?$char_traits@D@std@@V?$allocator@D@2@@std@@V?$shared_ptr@VJoint@urdf@@@2@@std@@@std@@@std@@QEAAXAEAV?$allocator@U?$_Tree_node@U?$pair@$$CBV?$basic_string@DU?$char_traits@D@std@@V?$allocator@D@2@@std@@V?$shared_ptr@VJoint@urdf@@@2@@std@@PEAX@std@@@1@@Z
	??$_Erase_head@V?$allocator@U?$_Tree_node@U?$pair@$$CBV?$basic_string@DU?$char_traits@D@std@@V?$allocator@D@2@@std@@V?$shared_ptr@VJointMimic@urdf@@@2@@std@@PEAX@std@@@std@@@?$_Tree_val@U?$_Tree_simple_types@U?$pair@$$CBV?$basic_string@DU?$char_traits@D@std@@V?$allocator@D@2@@std@@V?$shared_ptr@VJointMimic@urdf@@@2@@std@@@std@@@std@@QEAAXAEAV?$allocator@U?$_Tree_node@U?$pair@$$CBV?$basic_string@DU?$char_traits@D@std@@V?$allocator@D@2@@std@@V?$shared_ptr@VJointMimic@urdf@@@2@@std@@PEAX@std@@@1@@Z
	??$_Erase_head@V?$allocator@U?$_Tree_node@U?$pair@$$CBV?$basic_string@DU?$char_traits@D@std@@V?$allocator@D@2@@std@@V?$shared_ptr@VLink@urdf@@@2@@std@@PEAX@std@@@std@@@?$_Tree_val@U?$_Tree_simple_types@U?$pair@$$CBV?$basic_string@DU?$char_traits@D@std@@V?$allocator@D@2@@std@@V?$shared_ptr@VLink@urdf@@@2@@std@@@std@@@std@@QEAAXAEAV?$allocator@U?$_Tree_node@U?$pair@$$CBV?$basic_string@DU?$char_traits@D@std@@V?$allocator@D@2@@std@@V?$shared_ptr@VLink@urdf@@@2@@std@@PEAX@std@@@1@@Z
	??$_Erase_head@V?$allocator@U?$_Tree_node@U?$pair@$$CBV?$basic_string@DU?$char_traits@D@std@@V?$allocator@D@2@@std@@V?$shared_ptr@VMaterial@urdf@@@2@@std@@PEAX@std@@@std@@@?$_Tree_val@U?$_Tree_simple_types@U?$pair@$$CBV?$basic_string@DU?$char_traits@D@std@@V?$allocator@D@2@@std@@V?$shared_ptr@VMaterial@urdf@@@2@@std@@@std@@@std@@QEAAXAEAV?$allocator@U?$_Tree_node@U?$pair@$$CBV?$basic_string@DU?$char_traits@D@std@@V?$allocator@D@2@@std@@V?$shared_ptr@VMaterial@urdf@@@2@@std@@PEAX@std@@@1@@Z
	??$_Erase_head@V?$allocator@U?$_Tree_node@U?$pair@$$CBV?$basic_string@DU?$char_traits@D@std@@V?$allocator@D@2@@std@@VSegmentPair@robot_state_publisher@@@std@@PEAX@std@@@std@@@?$_Tree_val@U?$_Tree_simple_types@U?$pair@$$CBV?$basic_string@DU?$char_traits@D@std@@V?$allocator@D@2@@std@@VSegmentPair@robot_state_publisher@@@std@@@std@@@std@@QEAAXAEAV?$allocator@U?$_Tree_node@U?$pair@$$CBV?$basic_string@DU?$char_traits@D@std@@V?$allocator@D@2@@std@@VSegmentPair@robot_state_publisher@@@std@@PEAX@std@@@1@@Z
	??$_Erase_head@V?$allocator@U?$_Tree_node@U?$pair@$$CBV?$basic_string@DU?$char_traits@D@std@@V?$allocator@D@2@@std@@VTime@ros@@@std@@PEAX@std@@@std@@@?$_Tree_val@U?$_Tree_simple_types@U?$pair@$$CBV?$basic_string@DU?$char_traits@D@std@@V?$allocator@D@2@@std@@VTime@ros@@@std@@@std@@@std@@QEAAXAEAV?$allocator@U?$_Tree_node@U?$pair@$$CBV?$basic_string@DU?$char_traits@D@std@@V?$allocator@D@2@@std@@VTime@ros@@@std@@PEAX@std@@@1@@Z
	??$_Erase_head@V?$allocator@U?$_Tree_node@U?$pair@$$CBV?$basic_string@DU?$char_traits@D@std@@V?$allocator@D@2@@std@@VTreeElement@KDL@@@std@@PEAX@std@@@std@@@?$_Tree_val@U?$_Tree_simple_types@U?$pair@$$CBV?$basic_string@DU?$char_traits@D@std@@V?$allocator@D@2@@std@@VTreeElement@KDL@@@std@@@std@@@std@@QEAAXAEAV?$allocator@U?$_Tree_node@U?$pair@$$CBV?$basic_string@DU?$char_traits@D@std@@V?$allocator@D@2@@std@@VTreeElement@KDL@@@std@@PEAX@std@@@1@@Z
	??$_Erase_tree@V?$allocator@U?$_Tree_node@U?$pair@$$CBV?$basic_string@DU?$char_traits@D@std@@V?$allocator@D@2@@std@@N@std@@PEAX@std@@@std@@@?$_Tree_val@U?$_Tree_simple_types@U?$pair@$$CBV?$basic_string@DU?$char_traits@D@std@@V?$allocator@D@2@@std@@N@std@@@std@@@std@@QEAAXAEAV?$allocator@U?$_Tree_node@U?$pair@$$CBV?$basic_string@DU?$char_traits@D@std@@V?$allocator@D@2@@std@@N@std@@PEAX@std@@@1@PEAU?$_Tree_node@U?$pair@$$CBV?$basic_string@DU?$char_traits@D@std@@V?$allocator@D@2@@std@@N@std@@PEAX@1@@Z
	??$_Erase_tree@V?$allocator@U?$_Tree_node@U?$pair@$$CBV?$basic_string@DU?$char_traits@D@std@@V?$allocator@D@2@@std@@V12@@std@@PEAX@std@@@std@@@?$_Tree_val@U?$_Tree_simple_types@U?$pair@$$CBV?$basic_string@DU?$char_traits@D@std@@V?$allocator@D@2@@std@@V12@@std@@@std@@@std@@QEAAXAEAV?$allocator@U?$_Tree_node@U?$pair@$$CBV?$basic_string@DU?$char_traits@D@std@@V?$allocator@D@2@@std@@V12@@std@@PEAX@std@@@1@PEAU?$_Tree_node@U?$pair@$$CBV?$basic_string@DU?$char_traits@D@std@@V?$allocator@D@2@@std@@V12@@std@@PEAX@1@@Z
	??$_Erase_tree@V?$allocator@U?$_Tree_node@U?$pair@$$CBV?$basic_string@DU?$char_traits@D@std@@V?$allocator@D@2@@std@@V?$shared_ptr@VJoint@urdf@@@2@@std@@PEAX@std@@@std@@@?$_Tree_val@U?$_Tree_simple_types@U?$pair@$$CBV?$basic_string@DU?$char_traits@D@std@@V?$allocator@D@2@@std@@V?$shared_ptr@VJoint@urdf@@@2@@std@@@std@@@std@@QEAAXAEAV?$allocator@U?$_Tree_node@U?$pair@$$CBV?$basic_string@DU?$char_traits@D@std@@V?$allocator@D@2@@std@@V?$shared_ptr@VJoint@urdf@@@2@@std@@PEAX@std@@@1@PEAU?$_Tree_node@U?$pair@$$CBV?$basic_string@DU?$char_traits@D@std@@V?$allocator@D@2@@std@@V?$shared_ptr@VJoint@urdf@@@2@@std@@PEAX@1@@Z
	??$_Erase_tree@V?$allocator@U?$_Tree_node@U?$pair@$$CBV?$basic_string@DU?$char_traits@D@std@@V?$allocator@D@2@@std@@V?$shared_ptr@VJointMimic@urdf@@@2@@std@@PEAX@std@@@std@@@?$_Tree_val@U?$_Tree_simple_types@U?$pair@$$CBV?$basic_string@DU?$char_traits@D@std@@V?$allocator@D@2@@std@@V?$shared_ptr@VJointMimic@urdf@@@2@@std@@@std@@@std@@QEAAXAEAV?$allocator@U?$_Tree_node@U?$pair@$$CBV?$basic_string@DU?$char_traits@D@std@@V?$allocator@D@2@@std@@V?$shared_ptr@VJointMimic@urdf@@@2@@std@@PEAX@std@@@1@PEAU?$_Tree_node@U?$pair@$$CBV?$basic_string@DU?$char_traits@D@std@@V?$allocator@D@2@@std@@V?$shared_ptr@VJointMimic@urdf@@@2@@std@@PEAX@1@@Z
	??$_Erase_tree@V?$allocator@U?$_Tree_node@U?$pair@$$CBV?$basic_string@DU?$char_traits@D@std@@V?$allocator@D@2@@std@@V?$shared_ptr@VLink@urdf@@@2@@std@@PEAX@std@@@std@@@?$_Tree_val@U?$_Tree_simple_types@U?$pair@$$CBV?$basic_string@DU?$char_traits@D@std@@V?$allocator@D@2@@std@@V?$shared_ptr@VLink@urdf@@@2@@std@@@std@@@std@@QEAAXAEAV?$allocator@U?$_Tree_node@U?$pair@$$CBV?$basic_string@DU?$char_traits@D@std@@V?$allocator@D@2@@std@@V?$shared_ptr@VLink@urdf@@@2@@std@@PEAX@std@@@1@PEAU?$_Tree_node@U?$pair@$$CBV?$basic_string@DU?$char_traits@D@std@@V?$allocator@D@2@@std@@V?$shared_ptr@VLink@urdf@@@2@@std@@PEAX@1@@Z
	??$_Erase_tree@V?$allocator@U?$_Tree_node@U?$pair@$$CBV?$basic_string@DU?$char_traits@D@std@@V?$allocator@D@2@@std@@V?$shared_ptr@VMaterial@urdf@@@2@@std@@PEAX@std@@@std@@@?$_Tree_val@U?$_Tree_simple_types@U?$pair@$$CBV?$basic_string@DU?$char_traits@D@std@@V?$allocator@D@2@@std@@V?$shared_ptr@VMaterial@urdf@@@2@@std@@@std@@@std@@QEAAXAEAV?$allocator@U?$_Tree_node@U?$pair@$$CBV?$basic_string@DU?$char_traits@D@std@@V?$allocator@D@2@@std@@V?$shared_ptr@VMaterial@urdf@@@2@@std@@PEAX@std@@@1@PEAU?$_Tree_node@U?$pair@$$CBV?$basic_string@DU?$char_traits@D@std@@V?$allocator@D@2@@std@@V?$shared_ptr@VMaterial@urdf@@@2@@std@@PEAX@1@@Z
	??$_Erase_tree@V?$allocator@U?$_Tree_node@U?$pair@$$CBV?$basic_string@DU?$char_traits@D@std@@V?$allocator@D@2@@std@@VSegmentPair@robot_state_publisher@@@std@@PEAX@std@@@std@@@?$_Tree_val@U?$_Tree_simple_types@U?$pair@$$CBV?$basic_string@DU?$char_traits@D@std@@V?$allocator@D@2@@std@@VSegmentPair@robot_state_publisher@@@std@@@std@@@std@@QEAAXAEAV?$allocator@U?$_Tree_node@U?$pair@$$CBV?$basic_string@DU?$char_traits@D@std@@V?$allocator@D@2@@std@@VSegmentPair@robot_state_publisher@@@std@@PEAX@std@@@1@PEAU?$_Tree_node@U?$pair@$$CBV?$basic_string@DU?$char_traits@D@std@@V?$allocator@D@2@@std@@VSegmentPair@robot_state_publisher@@@std@@PEAX@1@@Z
	??$_Erase_tree@V?$allocator@U?$_Tree_node@U?$pair@$$CBV?$basic_string@DU?$char_traits@D@std@@V?$allocator@D@2@@std@@VTime@ros@@@std@@PEAX@std@@@std@@@?$_Tree_val@U?$_Tree_simple_types@U?$pair@$$CBV?$basic_string@DU?$char_traits@D@std@@V?$allocator@D@2@@std@@VTime@ros@@@std@@@std@@@std@@QEAAXAEAV?$allocator@U?$_Tree_node@U?$pair@$$CBV?$basic_string@DU?$char_traits@D@std@@V?$allocator@D@2@@std@@VTime@ros@@@std@@PEAX@std@@@1@PEAU?$_Tree_node@U?$pair@$$CBV?$basic_string@DU?$char_traits@D@std@@V?$allocator@D@2@@std@@VTime@ros@@@std@@PEAX@1@@Z
	??$_Erase_tree@V?$allocator@U?$_Tree_node@U?$pair@$$CBV?$basic_string@DU?$char_traits@D@std@@V?$allocator@D@2@@std@@VTreeElement@KDL@@@std@@PEAX@std@@@std@@@?$_Tree_val@U?$_Tree_simple_types@U?$pair@$$CBV?$basic_string@DU?$char_traits@D@std@@V?$allocator@D@2@@std@@VTreeElement@KDL@@@std@@@std@@@std@@QEAAXAEAV?$allocator@U?$_Tree_node@U?$pair@$$CBV?$basic_string@DU?$char_traits@D@std@@V?$allocator@D@2@@std@@VTreeElement@KDL@@@std@@PEAX@std@@@1@PEAU?$_Tree_node@U?$pair@$$CBV?$basic_string@DU?$char_traits@D@std@@V?$allocator@D@2@@std@@VTreeElement@KDL@@@std@@PEAX@1@@Z
	??$_Erase_tree_and_orphan@V?$allocator@U?$_Tree_node@U?$pair@$$CBV?$basic_string@DU?$char_traits@D@std@@V?$allocator@D@2@@std@@V?$shared_ptr@VJointMimic@urdf@@@2@@std@@PEAX@std@@@std@@@?$_Tree_val@U?$_Tree_simple_types@U?$pair@$$CBV?$basic_string@DU?$char_traits@D@std@@V?$allocator@D@2@@std@@V?$shared_ptr@VJointMimic@urdf@@@2@@std@@@std@@@std@@QEAAXAEAV?$allocator@U?$_Tree_node@U?$pair@$$CBV?$basic_string@DU?$char_traits@D@std@@V?$allocator@D@2@@std@@V?$shared_ptr@VJointMimic@urdf@@@2@@std@@PEAX@std@@@1@PEAU?$_Tree_node@U?$pair@$$CBV?$basic_string@DU?$char_traits@D@std@@V?$allocator@D@2@@std@@V?$shared_ptr@VJointMimic@urdf@@@2@@std@@PEAX@1@@Z
	??$_Find@V?$basic_string@DU?$char_traits@D@std@@V?$allocator@D@2@@std@@@?$_Tree@V?$_Tmap_traits@V?$basic_string@DU?$char_traits@D@std@@V?$allocator@D@2@@std@@NU?$less@V?$basic_string@DU?$char_traits@D@std@@V?$allocator@D@2@@std@@@2@V?$allocator@U?$pair@$$CBV?$basic_string@DU?$char_traits@D@std@@V?$allocator@D@2@@std@@N@std@@@2@$0A@@std@@@std@@AEBAPEAU?$_Tree_node@U?$pair@$$CBV?$basic_string@DU?$char_traits@D@std@@V?$allocator@D@2@@std@@N@std@@PEAX@1@AEBV?$basic_string@DU?$char_traits@D@std@@V?$allocator@D@2@@1@@Z
	??$_Find_lower_bound@V?$basic_string@DU?$char_traits@D@std@@V?$allocator@D@2@@std@@@?$_Tree@V?$_Tmap_traits@V?$basic_string@DU?$char_traits@D@std@@V?$allocator@D@2@@std@@NU?$less@V?$basic_string@DU?$char_traits@D@std@@V?$allocator@D@2@@std@@@2@V?$allocator@U?$pair@$$CBV?$basic_string@DU?$char_traits@D@std@@V?$allocator@D@2@@std@@N@std@@@2@$0A@@std@@@std@@IEBA?AU?$_Tree_find_result@PEAU?$_Tree_node@U?$pair@$$CBV?$basic_string@DU?$char_traits@D@std@@V?$allocator@D@2@@std@@N@std@@PEAX@std@@@1@AEBV?$basic_string@DU?$char_traits@D@std@@V?$allocator@D@2@@1@@Z
	??$_Find_lower_bound@V?$basic_string@DU?$char_traits@D@std@@V?$allocator@D@2@@std@@@?$_Tree@V?$_Tmap_traits@V?$basic_string@DU?$char_traits@D@std@@V?$allocator@D@2@@std@@V?$shared_ptr@VJointMimic@urdf@@@2@U?$less@V?$basic_string@DU?$char_traits@D@std@@V?$allocator@D@2@@std@@@2@V?$allocator@U?$pair@$$CBV?$basic_string@DU?$char_traits@D@std@@V?$allocator@D@2@@std@@V?$shared_ptr@VJointMimic@urdf@@@2@@std@@@2@$0A@@std@@@std@@IEBA?AU?$_Tree_find_result@PEAU?$_Tree_node@U?$pair@$$CBV?$basic_string@DU?$char_traits@D@std@@V?$allocator@D@2@@std@@V?$shared_ptr@VJointMimic@urdf@@@2@@std@@PEAX@std@@@1@AEBV?$basic_string@DU?$char_traits@D@std@@V?$allocator@D@2@@1@@Z
	??$_Find_lower_bound@V?$basic_string@DU?$char_traits@D@std@@V?$allocator@D@2@@std@@@?$_Tree@V?$_Tmap_traits@V?$basic_string@DU?$char_traits@D@std@@V?$allocator@D@2@@std@@VTime@ros@@U?$less@V?$basic_string@DU?$char_traits@D@std@@V?$allocator@D@2@@std@@@2@V?$allocator@U?$pair@$$CBV?$basic_string@DU?$char_traits@D@std@@V?$allocator@D@2@@std@@VTime@ros@@@std@@@2@$0A@@std@@@std@@IEBA?AU?$_Tree_find_result@PEAU?$_Tree_node@U?$pair@$$CBV?$basic_string@DU?$char_traits@D@std@@V?$allocator@D@2@@std@@VTime@ros@@@std@@PEAX@std@@@1@AEBV?$basic_string@DU?$char_traits@D@std@@V?$allocator@D@2@@1@@Z
	??$_Freenode0@V?$allocator@U?$_Tree_node@U?$pair@$$CBV?$basic_string@DU?$char_traits@D@std@@V?$allocator@D@2@@std@@N@std@@PEAX@std@@@std@@@?$_Tree_node@U?$pair@$$CBV?$basic_string@DU?$char_traits@D@std@@V?$allocator@D@2@@std@@N@std@@PEAX@std@@SAXAEAV?$allocator@U?$_Tree_node@U?$pair@$$CBV?$basic_string@DU?$char_traits@D@std@@V?$allocator@D@2@@std@@N@std@@PEAX@std@@@1@PEAU01@@Z
	??$_Freenode0@V?$allocator@U?$_Tree_node@U?$pair@$$CBV?$basic_string@DU?$char_traits@D@std@@V?$allocator@D@2@@std@@V12@@std@@PEAX@std@@@std@@@?$_Tree_node@U?$pair@$$CBV?$basic_string@DU?$char_traits@D@std@@V?$allocator@D@2@@std@@V12@@std@@PEAX@std@@SAXAEAV?$allocator@U?$_Tree_node@U?$pair@$$CBV?$basic_string@DU?$char_traits@D@std@@V?$allocator@D@2@@std@@V12@@std@@PEAX@std@@@1@PEAU01@@Z
	??$_Freenode0@V?$allocator@U?$_Tree_node@U?$pair@$$CBV?$basic_string@DU?$char_traits@D@std@@V?$allocator@D@2@@std@@V?$shared_ptr@VJoint@urdf@@@2@@std@@PEAX@std@@@std@@@?$_Tree_node@U?$pair@$$CBV?$basic_string@DU?$char_traits@D@std@@V?$allocator@D@2@@std@@V?$shared_ptr@VJoint@urdf@@@2@@std@@PEAX@std@@SAXAEAV?$allocator@U?$_Tree_node@U?$pair@$$CBV?$basic_string@DU?$char_traits@D@std@@V?$allocator@D@2@@std@@V?$shared_ptr@VJoint@urdf@@@2@@std@@PEAX@std@@@1@PEAU01@@Z
	??$_Freenode0@V?$allocator@U?$_Tree_node@U?$pair@$$CBV?$basic_string@DU?$char_traits@D@std@@V?$allocator@D@2@@std@@V?$shared_ptr@VJointMimic@urdf@@@2@@std@@PEAX@std@@@std@@@?$_Tree_node@U?$pair@$$CBV?$basic_string@DU?$char_traits@D@std@@V?$allocator@D@2@@std@@V?$shared_ptr@VJointMimic@urdf@@@2@@std@@PEAX@std@@SAXAEAV?$allocator@U?$_Tree_node@U?$pair@$$CBV?$basic_string@DU?$char_traits@D@std@@V?$allocator@D@2@@std@@V?$shared_ptr@VJointMimic@urdf@@@2@@std@@PEAX@std@@@1@PEAU01@@Z
	??$_Freenode0@V?$allocator@U?$_Tree_node@U?$pair@$$CBV?$basic_string@DU?$char_traits@D@std@@V?$allocator@D@2@@std@@V?$shared_ptr@VLink@urdf@@@2@@std@@PEAX@std@@@std@@@?$_Tree_node@U?$pair@$$CBV?$basic_string@DU?$char_traits@D@std@@V?$allocator@D@2@@std@@V?$shared_ptr@VLink@urdf@@@2@@std@@PEAX@std@@SAXAEAV?$allocator@U?$_Tree_node@U?$pair@$$CBV?$basic_string@DU?$char_traits@D@std@@V?$allocator@D@2@@std@@V?$shared_ptr@VLink@urdf@@@2@@std@@PEAX@std@@@1@PEAU01@@Z
	??$_Freenode0@V?$allocator@U?$_Tree_node@U?$pair@$$CBV?$basic_string@DU?$char_traits@D@std@@V?$allocator@D@2@@std@@V?$shared_ptr@VMaterial@urdf@@@2@@std@@PEAX@std@@@std@@@?$_Tree_node@U?$pair@$$CBV?$basic_string@DU?$char_traits@D@std@@V?$allocator@D@2@@std@@V?$shared_ptr@VMaterial@urdf@@@2@@std@@PEAX@std@@SAXAEAV?$allocator@U?$_Tree_node@U?$pair@$$CBV?$basic_string@DU?$char_traits@D@std@@V?$allocator@D@2@@std@@V?$shared_ptr@VMaterial@urdf@@@2@@std@@PEAX@std@@@1@PEAU01@@Z
	??$_Freenode0@V?$allocator@U?$_Tree_node@U?$pair@$$CBV?$basic_string@DU?$char_traits@D@std@@V?$allocator@D@2@@std@@VSegmentPair@robot_state_publisher@@@std@@PEAX@std@@@std@@@?$_Tree_node@U?$pair@$$CBV?$basic_string@DU?$char_traits@D@std@@V?$allocator@D@2@@std@@VSegmentPair@robot_state_publisher@@@std@@PEAX@std@@SAXAEAV?$allocator@U?$_Tree_node@U?$pair@$$CBV?$basic_string@DU?$char_traits@D@std@@V?$allocator@D@2@@std@@VSegmentPair@robot_state_publisher@@@std@@PEAX@std@@@1@PEAU01@@Z
	??$_Freenode0@V?$allocator@U?$_Tree_node@U?$pair@$$CBV?$basic_string@DU?$char_traits@D@std@@V?$allocator@D@2@@std@@VTime@ros@@@std@@PEAX@std@@@std@@@?$_Tree_node@U?$pair@$$CBV?$basic_string@DU?$char_traits@D@std@@V?$allocator@D@2@@std@@VTime@ros@@@std@@PEAX@std@@SAXAEAV?$allocator@U?$_Tree_node@U?$pair@$$CBV?$basic_string@DU?$char_traits@D@std@@V?$allocator@D@2@@std@@VTime@ros@@@std@@PEAX@std@@@1@PEAU01@@Z
	??$_Freenode0@V?$allocator@U?$_Tree_node@U?$pair@$$CBV?$basic_string@DU?$char_traits@D@std@@V?$allocator@D@2@@std@@VTreeElement@KDL@@@std@@PEAX@std@@@std@@@?$_Tree_node@U?$pair@$$CBV?$basic_string@DU?$char_traits@D@std@@V?$allocator@D@2@@std@@VTreeElement@KDL@@@std@@PEAX@std@@SAXAEAV?$allocator@U?$_Tree_node@U?$pair@$$CBV?$basic_string@DU?$char_traits@D@std@@V?$allocator@D@2@@std@@VTreeElement@KDL@@@std@@PEAX@std@@@1@PEAU01@@Z
	??$_Freenode@V?$allocator@U?$_Tree_node@U?$pair@$$CBV?$basic_string@DU?$char_traits@D@std@@V?$allocator@D@2@@std@@N@std@@PEAX@std@@@std@@@?$_Tree_node@U?$pair@$$CBV?$basic_string@DU?$char_traits@D@std@@V?$allocator@D@2@@std@@N@std@@PEAX@std@@SAXAEAV?$allocator@U?$_Tree_node@U?$pair@$$CBV?$basic_string@DU?$char_traits@D@std@@V?$allocator@D@2@@std@@N@std@@PEAX@std@@@1@PEAU01@@Z
	??$_Freenode@V?$allocator@U?$_Tree_node@U?$pair@$$CBV?$basic_string@DU?$char_traits@D@std@@V?$allocator@D@2@@std@@V12@@std@@PEAX@std@@@std@@@?$_Tree_node@U?$pair@$$CBV?$basic_string@DU?$char_traits@D@std@@V?$allocator@D@2@@std@@V12@@std@@PEAX@std@@SAXAEAV?$allocator@U?$_Tree_node@U?$pair@$$CBV?$basic_string@DU?$char_traits@D@std@@V?$allocator@D@2@@std@@V12@@std@@PEAX@std@@@1@PEAU01@@Z
	??$_Freenode@V?$allocator@U?$_Tree_node@U?$pair@$$CBV?$basic_string@DU?$char_traits@D@std@@V?$allocator@D@2@@std@@V?$shared_ptr@VJoint@urdf@@@2@@std@@PEAX@std@@@std@@@?$_Tree_node@U?$pair@$$CBV?$basic_string@DU?$char_traits@D@std@@V?$allocator@D@2@@std@@V?$shared_ptr@VJoint@urdf@@@2@@std@@PEAX@std@@SAXAEAV?$allocator@U?$_Tree_node@U?$pair@$$CBV?$basic_string@DU?$char_traits@D@std@@V?$allocator@D@2@@std@@V?$shared_ptr@VJoint@urdf@@@2@@std@@PEAX@std@@@1@PEAU01@@Z
	??$_Freenode@V?$allocator@U?$_Tree_node@U?$pair@$$CBV?$basic_string@DU?$char_traits@D@std@@V?$allocator@D@2@@std@@V?$shared_ptr@VJointMimic@urdf@@@2@@std@@PEAX@std@@@std@@@?$_Tree_node@U?$pair@$$CBV?$basic_string@DU?$char_traits@D@std@@V?$allocator@D@2@@std@@V?$shared_ptr@VJointMimic@urdf@@@2@@std@@PEAX@std@@SAXAEAV?$allocator@U?$_Tree_node@U?$pair@$$CBV?$basic_string@DU?$char_traits@D@std@@V?$allocator@D@2@@std@@V?$shared_ptr@VJointMimic@urdf@@@2@@std@@PEAX@std@@@1@PEAU01@@Z
	??$_Freenode@V?$allocator@U?$_Tree_node@U?$pair@$$CBV?$basic_string@DU?$char_traits@D@std@@V?$allocator@D@2@@std@@V?$shared_ptr@VLink@urdf@@@2@@std@@PEAX@std@@@std@@@?$_Tree_node@U?$pair@$$CBV?$basic_string@DU?$char_traits@D@std@@V?$allocator@D@2@@std@@V?$shared_ptr@VLink@urdf@@@2@@std@@PEAX@std@@SAXAEAV?$allocator@U?$_Tree_node@U?$pair@$$CBV?$basic_string@DU?$char_traits@D@std@@V?$allocator@D@2@@std@@V?$shared_ptr@VLink@urdf@@@2@@std@@PEAX@std@@@1@PEAU01@@Z
	??$_Freenode@V?$allocator@U?$_Tree_node@U?$pair@$$CBV?$basic_string@DU?$char_traits@D@std@@V?$allocator@D@2@@std@@V?$shared_ptr@VMaterial@urdf@@@2@@std@@PEAX@std@@@std@@@?$_Tree_node@U?$pair@$$CBV?$basic_string@DU?$char_traits@D@std@@V?$allocator@D@2@@std@@V?$shared_ptr@VMaterial@urdf@@@2@@std@@PEAX@std@@SAXAEAV?$allocator@U?$_Tree_node@U?$pair@$$CBV?$basic_string@DU?$char_traits@D@std@@V?$allocator@D@2@@std@@V?$shared_ptr@VMaterial@urdf@@@2@@std@@PEAX@std@@@1@PEAU01@@Z
	??$_Freenode@V?$allocator@U?$_Tree_node@U?$pair@$$CBV?$basic_string@DU?$char_traits@D@std@@V?$allocator@D@2@@std@@VSegmentPair@robot_state_publisher@@@std@@PEAX@std@@@std@@@?$_Tree_node@U?$pair@$$CBV?$basic_string@DU?$char_traits@D@std@@V?$allocator@D@2@@std@@VSegmentPair@robot_state_publisher@@@std@@PEAX@std@@SAXAEAV?$allocator@U?$_Tree_node@U?$pair@$$CBV?$basic_string@DU?$char_traits@D@std@@V?$allocator@D@2@@std@@VSegmentPair@robot_state_publisher@@@std@@PEAX@std@@@1@PEAU01@@Z
	??$_Freenode@V?$allocator@U?$_Tree_node@U?$pair@$$CBV?$basic_string@DU?$char_traits@D@std@@V?$allocator@D@2@@std@@VTime@ros@@@std@@PEAX@std@@@std@@@?$_Tree_node@U?$pair@$$CBV?$basic_string@DU?$char_traits@D@std@@V?$allocator@D@2@@std@@VTime@ros@@@std@@PEAX@std@@SAXAEAV?$allocator@U?$_Tree_node@U?$pair@$$CBV?$basic_string@DU?$char_traits@D@std@@V?$allocator@D@2@@std@@VTime@ros@@@std@@PEAX@std@@@1@PEAU01@@Z
	??$_Freenode@V?$allocator@U?$_Tree_node@U?$pair@$$CBV?$basic_string@DU?$char_traits@D@std@@V?$allocator@D@2@@std@@VTreeElement@KDL@@@std@@PEAX@std@@@std@@@?$_Tree_node@U?$pair@$$CBV?$basic_string@DU?$char_traits@D@std@@V?$allocator@D@2@@std@@VTreeElement@KDL@@@std@@PEAX@std@@SAXAEAV?$allocator@U?$_Tree_node@U?$pair@$$CBV?$basic_string@DU?$char_traits@D@std@@V?$allocator@D@2@@std@@VTreeElement@KDL@@@std@@PEAX@std@@@1@PEAU01@@Z
	??$_Get_size_of_n@$00@std@@YA_K_K@Z
	??$_Get_size_of_n@$07@std@@YA_K_K@Z
	??$_Get_size_of_n@$0CA@@std@@YA_K_K@Z
	??$_Get_size_of_n@$0EI@@std@@YA_K_K@Z
	??$_Get_size_of_n@$0FA@@std@@YA_K_K@Z
	??$_Get_size_of_n@$0GA@@std@@YA_K_K@Z
	??$_Get_unwrapped@N@std@@YAPEANQEAN@Z
	??$_Get_unwrapped@V?$basic_string@DU?$char_traits@D@std@@V?$allocator@D@2@@std@@@std@@YAPEAV?$basic_string@DU?$char_traits@D@std@@V?$allocator@D@2@@0@QEAV10@@Z
	??$_Getvals@_W@?$time_get@DV?$istreambuf_iterator@DU?$char_traits@D@std@@@std@@@std@@IEAAX_WAEBV_Locinfo@1@@Z
	??$_Getvals@_W@?$time_get@_WV?$istreambuf_iterator@_WU?$char_traits@_W@std@@@std@@@std@@IEAAX_WAEBV_Locinfo@1@@Z
	??$_Kfn@$$CBV?$basic_string@DU?$char_traits@D@std@@V?$allocator@D@2@@std@@N@?$_Tmap_traits@V?$basic_string@DU?$char_traits@D@std@@V?$allocator@D@2@@std@@NU?$less@V?$basic_string@DU?$char_traits@D@std@@V?$allocator@D@2@@std@@@2@V?$allocator@U?$pair@$$CBV?$basic_string@DU?$char_traits@D@std@@V?$allocator@D@2@@std@@N@std@@@2@$0A@@std@@SAAEBV?$basic_string@DU?$char_traits@D@std@@V?$allocator@D@2@@1@AEBU?$pair@$$CBV?$basic_string@DU?$char_traits@D@std@@V?$allocator@D@2@@std@@N@1@@Z
	??$_Kfn@$$CBV?$basic_string@DU?$char_traits@D@std@@V?$allocator@D@2@@std@@V?$shared_ptr@VJointMimic@urdf@@@2@@?$_Tmap_traits@V?$basic_string@DU?$char_traits@D@std@@V?$allocator@D@2@@std@@V?$shared_ptr@VJointMimic@urdf@@@2@U?$less@V?$basic_string@DU?$char_traits@D@std@@V?$allocator@D@2@@std@@@2@V?$allocator@U?$pair@$$CBV?$basic_string@DU?$char_traits@D@std@@V?$allocator@D@2@@std@@V?$shared_ptr@VJointMimic@urdf@@@2@@std@@@2@$0A@@std@@SAAEBV?$basic_string@DU?$char_traits@D@std@@V?$allocator@D@2@@1@AEBU?$pair@$$CBV?$basic_string@DU?$char_traits@D@std@@V?$allocator@D@2@@std@@V?$shared_ptr@VJointMimic@urdf@@@2@@1@@Z
	??$_Kfn@$$CBV?$basic_string@DU?$char_traits@D@std@@V?$allocator@D@2@@std@@VTime@ros@@@?$_Tmap_traits@V?$basic_string@DU?$char_traits@D@std@@V?$allocator@D@2@@std@@VTime@ros@@U?$less@V?$basic_string@DU?$char_traits@D@std@@V?$allocator@D@2@@std@@@2@V?$allocator@U?$pair@$$CBV?$basic_string@DU?$char_traits@D@std@@V?$allocator@D@2@@std@@VTime@ros@@@std@@@2@$0A@@std@@SAAEBV?$basic_string@DU?$char_traits@D@std@@V?$allocator@D@2@@1@AEBU?$pair@$$CBV?$basic_string@DU?$char_traits@D@std@@V?$allocator@D@2@@std@@VTime@ros@@@1@@Z
	??$_Lower_bound_duplicate@V?$basic_string@DU?$char_traits@D@std@@V?$allocator@D@2@@std@@@?$_Tree@V?$_Tmap_traits@V?$basic_string@DU?$char_traits@D@std@@V?$allocator@D@2@@std@@NU?$less@V?$basic_string@DU?$char_traits@D@std@@V?$allocator@D@2@@std@@@2@V?$allocator@U?$pair@$$CBV?$basic_string@DU?$char_traits@D@std@@V?$allocator@D@2@@std@@N@std@@@2@$0A@@std@@@std@@IEBA_NQEAU?$_Tree_node@U?$pair@$$CBV?$basic_string@DU?$char_traits@D@std@@V?$allocator@D@2@@std@@N@std@@PEAX@1@AEBV?$basic_string@DU?$char_traits@D@std@@V?$allocator@D@2@@1@@Z
	??$_Lower_bound_duplicate@V?$basic_string@DU?$char_traits@D@std@@V?$allocator@D@2@@std@@@?$_Tree@V?$_Tmap_traits@V?$basic_string@DU?$char_traits@D@std@@V?$allocator@D@2@@std@@V?$shared_ptr@VJointMimic@urdf@@@2@U?$less@V?$basic_string@DU?$char_traits@D@std@@V?$allocator@D@2@@std@@@2@V?$allocator@U?$pair@$$CBV?$basic_string@DU?$char_traits@D@std@@V?$allocator@D@2@@std@@V?$shared_ptr@VJointMimic@urdf@@@2@@std@@@2@$0A@@std@@@std@@IEBA_NQEAU?$_Tree_node@U?$pair@$$CBV?$basic_string@DU?$char_traits@D@std@@V?$allocator@D@2@@std@@V?$shared_ptr@VJointMimic@urdf@@@2@@std@@PEAX@1@AEBV?$basic_string@DU?$char_traits@D@std@@V?$allocator@D@2@@1@@Z
	??$_Lower_bound_duplicate@V?$basic_string@DU?$char_traits@D@std@@V?$allocator@D@2@@std@@@?$_Tree@V?$_Tmap_traits@V?$basic_string@DU?$char_traits@D@std@@V?$allocator@D@2@@std@@VTime@ros@@U?$less@V?$basic_string@DU?$char_traits@D@std@@V?$allocator@D@2@@std@@@2@V?$allocator@U?$pair@$$CBV?$basic_string@DU?$char_traits@D@std@@V?$allocator@D@2@@std@@VTime@ros@@@std@@@2@$0A@@std@@@std@@IEBA_NQEAU?$_Tree_node@U?$pair@$$CBV?$basic_string@DU?$char_traits@D@std@@V?$allocator@D@2@@std@@VTime@ros@@@std@@PEAX@1@AEBV?$basic_string@DU?$char_traits@D@std@@V?$allocator@D@2@@1@@Z
	??$_Maklocstr@D@std@@YAPEADPEBDPEADAEBU_Cvtvec@@@Z
	??$_Maklocstr@_W@std@@YAPEA_WPEBDPEA_WAEBU_Cvtvec@@@Z
	??$_Max_value@_K@std@@YAAEB_KAEB_K0@Z
	??$_Min_value@_K@std@@YAAEB_KAEB_K0@Z
	??$_Move_construct_from@VJointMimic@urdf@@@?$_Ptr_base@VJointMimic@urdf@@@std@@IEAAX$$QEAV01@@Z
	??$_Pocca@V?$allocator@D@std@@@std@@YAXAEAV?$allocator@D@0@AEBV10@@Z
	??$_Pocca@V?$allocator@N@std@@@std@@YAXAEAV?$allocator@N@0@AEBV10@@Z
	??$_Pocca@V?$allocator@V?$basic_string@DU?$char_traits@D@std@@V?$allocator@D@2@@std@@@std@@@std@@YAXAEAV?$allocator@V?$basic_string@DU?$char_traits@D@std@@V?$allocator@D@2@@std@@@0@AEBV10@@Z
	??$_Pocma@V?$allocator@D@std@@@std@@YAXAEAV?$allocator@D@0@0@Z
	??$_Reallocate_for@V<lambda_66f57f934f28d61049862f64df852ff0>@@PEBD@?$basic_string@DU?$char_traits@D@std@@V?$allocator@D@2@@std@@AEAAAEAV01@_KV<lambda_66f57f934f28d61049862f64df852ff0>@@PEBD@Z
	??$_Refancy@PEAN$0A@@std@@YAPEANPEAN@Z
	??$_Resize@U_Value_init_tag@std@@@?$vector@NV?$allocator@N@std@@@std@@AEAAX_KAEBU_Value_init_tag@1@@Z
	??$_Resize@U_Value_init_tag@std@@@?$vector@V?$basic_string@DU?$char_traits@D@std@@V?$allocator@D@2@@std@@V?$allocator@V?$basic_string@DU?$char_traits@D@std@@V?$allocator@D@2@@std@@@2@@std@@AEAAX_KAEBU_Value_init_tag@1@@Z
	??$_Resize_reallocate@U_Value_init_tag@std@@@?$vector@NV?$allocator@N@std@@@std@@AEAAX_KAEBU_Value_init_tag@1@@Z
	??$_Resize_reallocate@U_Value_init_tag@std@@@?$vector@V?$basic_string@DU?$char_traits@D@std@@V?$allocator@D@2@@std@@V?$allocator@V?$basic_string@DU?$char_traits@D@std@@V?$allocator@D@2@@std@@@2@@std@@AEAAX_KAEBU_Value_init_tag@1@@Z
	??$_Traits_compare@U?$char_traits@D@std@@@std@@YAHQEBD_K01@Z
	??$_Traits_equal@U?$char_traits@D@std@@@std@@YA_NQEBD_K01@Z
	??$_Traits_find_last_of@U?$char_traits@D@std@@@std@@YA_KQEBD_K101U?$integral_constant@_N$00@0@@Z
	??$_Traits_find_last_of@U?$char_traits@D@std@@@std@@YA_KQEBD_K101U?$integral_constant@_N$0A@@0@@Z
	??$_Try_emplace@AEBV?$basic_string@DU?$char_traits@D@std@@V?$allocator@D@2@@std@@$$V@?$map@V?$basic_string@DU?$char_traits@D@std@@V?$allocator@D@2@@std@@NU?$less@V?$basic_string@DU?$char_traits@D@std@@V?$allocator@D@2@@std@@@2@V?$allocator@U?$pair@$$CBV?$basic_string@DU?$char_traits@D@std@@V?$allocator@D@2@@std@@N@std@@@2@@std@@AEAA?AU?$pair@PEAU?$_Tree_node@U?$pair@$$CBV?$basic_string@DU?$char_traits@D@std@@V?$allocator@D@2@@std@@N@std@@PEAX@std@@_N@1@AEBV?$basic_string@DU?$char_traits@D@std@@V?$allocator@D@2@@1@@Z
	??$_Try_emplace@AEBV?$basic_string@DU?$char_traits@D@std@@V?$allocator@D@2@@std@@$$V@?$map@V?$basic_string@DU?$char_traits@D@std@@V?$allocator@D@2@@std@@VTime@ros@@U?$less@V?$basic_string@DU?$char_traits@D@std@@V?$allocator@D@2@@std@@@2@V?$allocator@U?$pair@$$CBV?$basic_string@DU?$char_traits@D@std@@V?$allocator@D@2@@std@@VTime@ros@@@std@@@2@@std@@AEAA?AU?$pair@PEAU?$_Tree_node@U?$pair@$$CBV?$basic_string@DU?$char_traits@D@std@@V?$allocator@D@2@@std@@VTime@ros@@@std@@PEAX@std@@_N@1@AEBV?$basic_string@DU?$char_traits@D@std@@V?$allocator@D@2@@1@@Z
	??$_Ucopy@PEAV?$basic_string@DU?$char_traits@D@std@@V?$allocator@D@2@@std@@@?$vector@V?$basic_string@DU?$char_traits@D@std@@V?$allocator@D@2@@std@@V?$allocator@V?$basic_string@DU?$char_traits@D@std@@V?$allocator@D@2@@std@@@2@@std@@AEAAPEAV?$basic_string@DU?$char_traits@D@std@@V?$allocator@D@2@@1@PEAV21@00@Z
	??$_Unfancy@D@std@@YAPEADPEAD@Z
	??$_Unfancy@N@std@@YAPEANPEAN@Z
	??$_Unfancy@U?$TransformStamped_@V?$allocator@X@std@@@geometry_msgs@@@std@@YAPEAU?$TransformStamped_@V?$allocator@X@std@@@geometry_msgs@@PEAU12@@Z
	??$_Unfancy@V?$basic_string@DU?$char_traits@D@std@@V?$allocator@D@2@@std@@@std@@YAPEAV?$basic_string@DU?$char_traits@D@std@@V?$allocator@D@2@@0@PEAV10@@Z
	??$_Uninitialized_copy@PEAV?$basic_string@DU?$char_traits@D@std@@V?$allocator@D@2@@std@@V?$allocator@V?$basic_string@DU?$char_traits@D@std@@V?$allocator@D@2@@std@@@2@@std@@YAPEAV?$basic_string@DU?$char_traits@D@std@@V?$allocator@D@2@@0@QEAV10@0PEAV10@AEAV?$allocator@V?$basic_string@DU?$char_traits@D@std@@V?$allocator@D@2@@std@@@0@@Z
	??$_Uninitialized_move@PEANV?$allocator@N@std@@@std@@YAPEANQEAN0PEANAEAV?$allocator@N@0@@Z
	??$_Uninitialized_move@PEAV?$basic_string@DU?$char_traits@D@std@@V?$allocator@D@2@@std@@V?$allocator@V?$basic_string@DU?$char_traits@D@std@@V?$allocator@D@2@@std@@@2@@std@@YAPEAV?$basic_string@DU?$char_traits@D@std@@V?$allocator@D@2@@0@QEAV10@0PEAV10@AEAV?$allocator@V?$basic_string@DU?$char_traits@D@std@@V?$allocator@D@2@@std@@@0@@Z
	??$_Uninitialized_value_construct_n@V?$allocator@N@std@@@std@@YAPEANPEAN_KAEAV?$allocator@N@0@@Z
	??$_Uninitialized_value_construct_n@V?$allocator@V?$basic_string@DU?$char_traits@D@std@@V?$allocator@D@2@@std@@@std@@@std@@YAPEAV?$basic_string@DU?$char_traits@D@std@@V?$allocator@D@2@@0@PEAV10@_KAEAV?$allocator@V?$basic_string@DU?$char_traits@D@std@@V?$allocator@D@2@@std@@@0@@Z
	??$_Zero_range@PEAN@std@@YAPEANQEAN0@Z
	??$addressof@$$CBV?$_String_val@U?$_Simple_types@D@std@@@std@@@std@@YAPEBV?$_String_val@U?$_Simple_types@D@std@@@0@AEBV10@@Z
	??$addressof@$$CBV?$_Tree_val@U?$_Tree_simple_types@U?$pair@$$CBV?$basic_string@DU?$char_traits@D@std@@V?$allocator@D@2@@std@@N@std@@@std@@@std@@@std@@YAPEBV?$_Tree_val@U?$_Tree_simple_types@U?$pair@$$CBV?$basic_string@DU?$char_traits@D@std@@V?$allocator@D@2@@std@@N@std@@@std@@@0@AEBV10@@Z
	??$addressof@$$CBV?$_Tree_val@U?$_Tree_simple_types@U?$pair@$$CBV?$basic_string@DU?$char_traits@D@std@@V?$allocator@D@2@@std@@V?$shared_ptr@VJointMimic@urdf@@@2@@std@@@std@@@std@@@std@@YAPEBV?$_Tree_val@U?$_Tree_simple_types@U?$pair@$$CBV?$basic_string@DU?$char_traits@D@std@@V?$allocator@D@2@@std@@V?$shared_ptr@VJointMimic@urdf@@@2@@std@@@std@@@0@AEBV10@@Z
	??$addressof@$$CBV?$_Tree_val@U?$_Tree_simple_types@U?$pair@$$CBV?$basic_string@DU?$char_traits@D@std@@V?$allocator@D@2@@std@@VTime@ros@@@std@@@std@@@std@@@std@@YAPEBV?$_Tree_val@U?$_Tree_simple_types@U?$pair@$$CBV?$basic_string@DU?$char_traits@D@std@@V?$allocator@D@2@@std@@VTime@ros@@@std@@@std@@@0@AEBV10@@Z
	??$addressof@$$CBV?$basic_string@DU?$char_traits@D@std@@V?$allocator@D@2@@std@@@std@@YAPEBV?$basic_string@DU?$char_traits@D@std@@V?$allocator@D@2@@0@AEBV10@@Z
	??$addressof@$$CBV?$vector@NV?$allocator@N@std@@@std@@@std@@YAPEBV?$vector@NV?$allocator@N@std@@@0@AEBV10@@Z
	??$addressof@$$CBV?$vector@V?$basic_string@DU?$char_traits@D@std@@V?$allocator@D@2@@std@@V?$allocator@V?$basic_string@DU?$char_traits@D@std@@V?$allocator@D@2@@std@@@2@@std@@@std@@YAPEBV?$vector@V?$basic_string@DU?$char_traits@D@std@@V?$allocator@D@2@@std@@V?$allocator@V?$basic_string@DU?$char_traits@D@std@@V?$allocator@D@2@@std@@@2@@0@AEBV10@@Z
	??$addressof@PEAD@std@@YAPEAPEADAEAPEAD@Z
	??$addressof@PEAU?$_Tree_node@U?$pair@$$CBV?$basic_string@DU?$char_traits@D@std@@V?$allocator@D@2@@std@@N@std@@PEAX@std@@@std@@YAPEAPEAU?$_Tree_node@U?$pair@$$CBV?$basic_string@DU?$char_traits@D@std@@V?$allocator@D@2@@std@@N@std@@PEAX@0@AEAPEAU10@@Z
	??$addressof@PEAU?$_Tree_node@U?$pair@$$CBV?$basic_string@DU?$char_traits@D@std@@V?$allocator@D@2@@std@@V12@@std@@PEAX@std@@@std@@YAPEAPEAU?$_Tree_node@U?$pair@$$CBV?$basic_string@DU?$char_traits@D@std@@V?$allocator@D@2@@std@@V12@@std@@PEAX@0@AEAPEAU10@@Z
	??$addressof@PEAU?$_Tree_node@U?$pair@$$CBV?$basic_string@DU?$char_traits@D@std@@V?$allocator@D@2@@std@@V?$shared_ptr@VJoint@urdf@@@2@@std@@PEAX@std@@@std@@YAPEAPEAU?$_Tree_node@U?$pair@$$CBV?$basic_string@DU?$char_traits@D@std@@V?$allocator@D@2@@std@@V?$shared_ptr@VJoint@urdf@@@2@@std@@PEAX@0@AEAPEAU10@@Z
	??$addressof@PEAU?$_Tree_node@U?$pair@$$CBV?$basic_string@DU?$char_traits@D@std@@V?$allocator@D@2@@std@@V?$shared_ptr@VJointMimic@urdf@@@2@@std@@PEAX@std@@@std@@YAPEAPEAU?$_Tree_node@U?$pair@$$CBV?$basic_string@DU?$char_traits@D@std@@V?$allocator@D@2@@std@@V?$shared_ptr@VJointMimic@urdf@@@2@@std@@PEAX@0@AEAPEAU10@@Z
	??$addressof@PEAU?$_Tree_node@U?$pair@$$CBV?$basic_string@DU?$char_traits@D@std@@V?$allocator@D@2@@std@@V?$shared_ptr@VLink@urdf@@@2@@std@@PEAX@std@@@std@@YAPEAPEAU?$_Tree_node@U?$pair@$$CBV?$basic_string@DU?$char_traits@D@std@@V?$allocator@D@2@@std@@V?$shared_ptr@VLink@urdf@@@2@@std@@PEAX@0@AEAPEAU10@@Z
	??$addressof@PEAU?$_Tree_node@U?$pair@$$CBV?$basic_string@DU?$char_traits@D@std@@V?$allocator@D@2@@std@@V?$shared_ptr@VMaterial@urdf@@@2@@std@@PEAX@std@@@std@@YAPEAPEAU?$_Tree_node@U?$pair@$$CBV?$basic_string@DU?$char_traits@D@std@@V?$allocator@D@2@@std@@V?$shared_ptr@VMaterial@urdf@@@2@@std@@PEAX@0@AEAPEAU10@@Z
	??$addressof@PEAU?$_Tree_node@U?$pair@$$CBV?$basic_string@DU?$char_traits@D@std@@V?$allocator@D@2@@std@@VTime@ros@@@std@@PEAX@std@@@std@@YAPEAPEAU?$_Tree_node@U?$pair@$$CBV?$basic_string@DU?$char_traits@D@std@@V?$allocator@D@2@@std@@VTime@ros@@@std@@PEAX@0@AEAPEAU10@@Z
	??$addressof@U?$DefaultMessageCreator@U?$JointState_@V?$allocator@X@std@@@sensor_msgs@@@ros@@@boost@@YAPEAU?$DefaultMessageCreator@U?$JointState_@V?$allocator@X@std@@@sensor_msgs@@@ros@@AEAU12@@Z
	??$addressof@U?$pair@$$CBV?$basic_string@DU?$char_traits@D@std@@V?$allocator@D@2@@std@@N@std@@@std@@YAPEAU?$pair@$$CBV?$basic_string@DU?$char_traits@D@std@@V?$allocator@D@2@@std@@N@0@AEAU10@@Z
	??$addressof@U?$pair@$$CBV?$basic_string@DU?$char_traits@D@std@@V?$allocator@D@2@@std@@V12@@std@@@std@@YAPEAU?$pair@$$CBV?$basic_string@DU?$char_traits@D@std@@V?$allocator@D@2@@std@@V12@@0@AEAU10@@Z
	??$addressof@U?$pair@$$CBV?$basic_string@DU?$char_traits@D@std@@V?$allocator@D@2@@std@@V?$shared_ptr@VJoint@urdf@@@2@@std@@@std@@YAPEAU?$pair@$$CBV?$basic_string@DU?$char_traits@D@std@@V?$allocator@D@2@@std@@V?$shared_ptr@VJoint@urdf@@@2@@0@AEAU10@@Z
	??$addressof@U?$pair@$$CBV?$basic_string@DU?$char_traits@D@std@@V?$allocator@D@2@@std@@V?$shared_ptr@VJointMimic@urdf@@@2@@std@@@std@@YAPEAU?$pair@$$CBV?$basic_string@DU?$char_traits@D@std@@V?$allocator@D@2@@std@@V?$shared_ptr@VJointMimic@urdf@@@2@@0@AEAU10@@Z
	??$addressof@U?$pair@$$CBV?$basic_string@DU?$char_traits@D@std@@V?$allocator@D@2@@std@@V?$shared_ptr@VLink@urdf@@@2@@std@@@std@@YAPEAU?$pair@$$CBV?$basic_string@DU?$char_traits@D@std@@V?$allocator@D@2@@std@@V?$shared_ptr@VLink@urdf@@@2@@0@AEAU10@@Z
	??$addressof@U?$pair@$$CBV?$basic_string@DU?$char_traits@D@std@@V?$allocator@D@2@@std@@V?$shared_ptr@VMaterial@urdf@@@2@@std@@@std@@YAPEAU?$pair@$$CBV?$basic_string@DU?$char_traits@D@std@@V?$allocator@D@2@@std@@V?$shared_ptr@VMaterial@urdf@@@2@@0@AEAU10@@Z
	??$addressof@U?$pair@$$CBV?$basic_string@DU?$char_traits@D@std@@V?$allocator@D@2@@std@@VSegmentPair@robot_state_publisher@@@std@@@std@@YAPEAU?$pair@$$CBV?$basic_string@DU?$char_traits@D@std@@V?$allocator@D@2@@std@@VSegmentPair@robot_state_publisher@@@0@AEAU10@@Z
	??$addressof@U?$pair@$$CBV?$basic_string@DU?$char_traits@D@std@@V?$allocator@D@2@@std@@VTime@ros@@@std@@@std@@YAPEAU?$pair@$$CBV?$basic_string@DU?$char_traits@D@std@@V?$allocator@D@2@@std@@VTime@ros@@@0@AEAU10@@Z
	??$addressof@U?$pair@$$CBV?$basic_string@DU?$char_traits@D@std@@V?$allocator@D@2@@std@@VTreeElement@KDL@@@std@@@std@@YAPEAU?$pair@$$CBV?$basic_string@DU?$char_traits@D@std@@V?$allocator@D@2@@std@@VTreeElement@KDL@@@0@AEAU10@@Z
	??$addressof@V?$_String_val@U?$_Simple_types@D@std@@@std@@@std@@YAPEAV?$_String_val@U?$_Simple_types@D@std@@@0@AEAV10@@Z
	??$addressof@V?$_Tree_val@U?$_Tree_simple_types@U?$pair@$$CBV?$basic_string@DU?$char_traits@D@std@@V?$allocator@D@2@@std@@N@std@@@std@@@std@@@std@@YAPEAV?$_Tree_val@U?$_Tree_simple_types@U?$pair@$$CBV?$basic_string@DU?$char_traits@D@std@@V?$allocator@D@2@@std@@N@std@@@std@@@0@AEAV10@@Z
	??$addressof@V?$_Tree_val@U?$_Tree_simple_types@U?$pair@$$CBV?$basic_string@DU?$char_traits@D@std@@V?$allocator@D@2@@std@@V12@@std@@@std@@@std@@@std@@YAPEAV?$_Tree_val@U?$_Tree_simple_types@U?$pair@$$CBV?$basic_string@DU?$char_traits@D@std@@V?$allocator@D@2@@std@@V12@@std@@@std@@@0@AEAV10@@Z
	??$addressof@V?$_Tree_val@U?$_Tree_simple_types@U?$pair@$$CBV?$basic_string@DU?$char_traits@D@std@@V?$allocator@D@2@@std@@V?$shared_ptr@VJoint@urdf@@@2@@std@@@std@@@std@@@std@@YAPEAV?$_Tree_val@U?$_Tree_simple_types@U?$pair@$$CBV?$basic_string@DU?$char_traits@D@std@@V?$allocator@D@2@@std@@V?$shared_ptr@VJoint@urdf@@@2@@std@@@std@@@0@AEAV10@@Z
	??$addressof@V?$_Tree_val@U?$_Tree_simple_types@U?$pair@$$CBV?$basic_string@DU?$char_traits@D@std@@V?$allocator@D@2@@std@@V?$shared_ptr@VJointMimic@urdf@@@2@@std@@@std@@@std@@@std@@YAPEAV?$_Tree_val@U?$_Tree_simple_types@U?$pair@$$CBV?$basic_string@DU?$char_traits@D@std@@V?$allocator@D@2@@std@@V?$shared_ptr@VJointMimic@urdf@@@2@@std@@@std@@@0@AEAV10@@Z
	??$addressof@V?$_Tree_val@U?$_Tree_simple_types@U?$pair@$$CBV?$basic_string@DU?$char_traits@D@std@@V?$allocator@D@2@@std@@V?$shared_ptr@VLink@urdf@@@2@@std@@@std@@@std@@@std@@YAPEAV?$_Tree_val@U?$_Tree_simple_types@U?$pair@$$CBV?$basic_string@DU?$char_traits@D@std@@V?$allocator@D@2@@std@@V?$shared_ptr@VLink@urdf@@@2@@std@@@std@@@0@AEAV10@@Z
	??$addressof@V?$_Tree_val@U?$_Tree_simple_types@U?$pair@$$CBV?$basic_string@DU?$char_traits@D@std@@V?$allocator@D@2@@std@@V?$shared_ptr@VMaterial@urdf@@@2@@std@@@std@@@std@@@std@@YAPEAV?$_Tree_val@U?$_Tree_simple_types@U?$pair@$$CBV?$basic_string@DU?$char_traits@D@std@@V?$allocator@D@2@@std@@V?$shared_ptr@VMaterial@urdf@@@2@@std@@@std@@@0@AEAV10@@Z
	??$addressof@V?$_Tree_val@U?$_Tree_simple_types@U?$pair@$$CBV?$basic_string@DU?$char_traits@D@std@@V?$allocator@D@2@@std@@VSegmentPair@robot_state_publisher@@@std@@@std@@@std@@@std@@YAPEAV?$_Tree_val@U?$_Tree_simple_types@U?$pair@$$CBV?$basic_string@DU?$char_traits@D@std@@V?$allocator@D@2@@std@@VSegmentPair@robot_state_publisher@@@std@@@std@@@0@AEAV10@@Z
	??$addressof@V?$_Tree_val@U?$_Tree_simple_types@U?$pair@$$CBV?$basic_string@DU?$char_traits@D@std@@V?$allocator@D@2@@std@@VTime@ros@@@std@@@std@@@std@@@std@@YAPEAV?$_Tree_val@U?$_Tree_simple_types@U?$pair@$$CBV?$basic_string@DU?$char_traits@D@std@@V?$allocator@D@2@@std@@VTime@ros@@@std@@@std@@@0@AEAV10@@Z
	??$addressof@V?$_Tree_val@U?$_Tree_simple_types@U?$pair@$$CBV?$basic_string@DU?$char_traits@D@std@@V?$allocator@D@2@@std@@VTreeElement@KDL@@@std@@@std@@@std@@@std@@YAPEAV?$_Tree_val@U?$_Tree_simple_types@U?$pair@$$CBV?$basic_string@DU?$char_traits@D@std@@V?$allocator@D@2@@std@@VTreeElement@KDL@@@std@@@std@@@0@AEAV10@@Z
	??$addressof@V?$_Vector_val@U?$_Simple_types@V?$basic_string@DU?$char_traits@D@std@@V?$allocator@D@2@@std@@@std@@@std@@@std@@YAPEAV?$_Vector_val@U?$_Simple_types@V?$basic_string@DU?$char_traits@D@std@@V?$allocator@D@2@@std@@@std@@@0@AEAV10@@Z
	??$addressof@V?$basic_string@DU?$char_traits@D@std@@V?$allocator@D@2@@std@@@std@@YAPEAV?$basic_string@DU?$char_traits@D@std@@V?$allocator@D@2@@0@AEAV10@@Z
	??$addressof@V?$bind_t@XV?$mf1@XVJointStateListener@robot_state_publisher@@AEBUTimerEvent@ros@@@_mfi@boost@@V?$list2@V?$value@PEAVJointStateListener@robot_state_publisher@@@_bi@boost@@U?$arg@$00@3@@_bi@3@@_bi@boost@@@boost@@YAPEAV?$bind_t@XV?$mf1@XVJointStateListener@robot_state_publisher@@AEBUTimerEvent@ros@@@_mfi@boost@@V?$list2@V?$value@PEAVJointStateListener@robot_state_publisher@@@_bi@boost@@U?$arg@$00@3@@_bi@3@@_bi@0@AEAV120@@Z
	??$addressof@V?$bind_t@XV?$mf1@XVJointStateListener@robot_state_publisher@@AEBV?$shared_ptr@$$CBU?$JointState_@V?$allocator@X@std@@@sensor_msgs@@@boost@@@_mfi@boost@@V?$list2@V?$value@PEAVJointStateListener@robot_state_publisher@@@_bi@boost@@U?$arg@$00@3@@_bi@3@@_bi@boost@@@boost@@YAPEAV?$bind_t@XV?$mf1@XVJointStateListener@robot_state_publisher@@AEBV?$shared_ptr@$$CBU?$JointState_@V?$allocator@X@std@@@sensor_msgs@@@boost@@@_mfi@boost@@V?$list2@V?$value@PEAVJointStateListener@robot_state_publisher@@@_bi@boost@@U?$arg@$00@3@@_bi@3@@_bi@0@AEAV120@@Z
	??$addressof@V?$function@$$A6AXAEBV?$shared_ptr@$$CBU?$JointState_@V?$allocator@X@std@@@sensor_msgs@@@boost@@@Z@boost@@@boost@@YAPEAV?$function@$$A6AXAEBV?$shared_ptr@$$CBU?$JointState_@V?$allocator@X@std@@@sensor_msgs@@@boost@@@Z@0@AEAV10@@Z
	??$addressof@V?$sp_ms_deleter@U?$JointState_@V?$allocator@X@std@@@sensor_msgs@@@detail@boost@@@boost@@YAPEAV?$sp_ms_deleter@U?$JointState_@V?$allocator@X@std@@@sensor_msgs@@@detail@0@AEAV120@@Z
	??$addressof@V?$sp_ms_deleter@V?$SubscriptionCallbackHelperT@AEBV?$shared_ptr@$$CBU?$JointState_@V?$allocator@X@std@@@sensor_msgs@@@boost@@X@ros@@@detail@boost@@@boost@@YAPEAV?$sp_ms_deleter@V?$SubscriptionCallbackHelperT@AEBV?$shared_ptr@$$CBU?$JointState_@V?$allocator@X@std@@@sensor_msgs@@@boost@@X@ros@@@detail@0@AEAV120@@Z
	??$advance@PEAV?$basic_string@DU?$char_traits@D@std@@V?$allocator@D@2@@std@@_J@std@@YAXAEAPEAV?$basic_string@DU?$char_traits@D@std@@V?$allocator@D@2@@0@_J@Z
	??$allInOne@UIStream@serialization@ros@@AEAU?$Header_@V?$allocator@X@std@@@std_msgs@@@?$Serializer@U?$Header_@V?$allocator@X@std@@@std_msgs@@@serialization@ros@@SAXAEAUIStream@12@AEAU?$Header_@V?$allocator@X@std@@@std_msgs@@@Z
	??$allInOne@UIStream@serialization@ros@@AEAU?$JointState_@V?$allocator@X@std@@@sensor_msgs@@@?$Serializer@U?$JointState_@V?$allocator@X@std@@@sensor_msgs@@@serialization@ros@@SAXAEAUIStream@12@AEAU?$JointState_@V?$allocator@X@std@@@sensor_msgs@@@Z
	??$assign@PEANX@?$vector@NV?$allocator@N@std@@@std@@QEAAXPEAN0@Z
	??$assign@PEAV?$basic_string@DU?$char_traits@D@std@@V?$allocator@D@2@@std@@X@?$vector@V?$basic_string@DU?$char_traits@D@std@@V?$allocator@D@2@@std@@V?$allocator@V?$basic_string@DU?$char_traits@D@std@@V?$allocator@D@2@@std@@@2@@std@@QEAAXPEAV?$basic_string@DU?$char_traits@D@std@@V?$allocator@D@2@@1@0@Z
	??$assign_functor@U?$DefaultMessageCreator@U?$JointState_@V?$allocator@X@std@@@sensor_msgs@@@ros@@@?$basic_vtable0@V?$shared_ptr@U?$JointState_@V?$allocator@X@std@@@sensor_msgs@@@boost@@@function@detail@boost@@AEBAXU?$DefaultMessageCreator@U?$JointState_@V?$allocator@X@std@@@sensor_msgs@@@ros@@AEATfunction_buffer@123@U?$bool_@$00@mpl@3@@Z
	??$assign_functor@V?$bind_t@XV?$mf1@XVJointStateListener@robot_state_publisher@@AEBUTimerEvent@ros@@@_mfi@boost@@V?$list2@V?$value@PEAVJointStateListener@robot_state_publisher@@@_bi@boost@@U?$arg@$00@3@@_bi@3@@_bi@boost@@@?$basic_vtable1@XAEBUTimerEvent@ros@@@function@detail@boost@@AEBAXV?$bind_t@XV?$mf1@XVJointStateListener@robot_state_publisher@@AEBUTimerEvent@ros@@@_mfi@boost@@V?$list2@V?$value@PEAVJointStateListener@robot_state_publisher@@@_bi@boost@@U?$arg@$00@3@@_bi@3@@_bi@3@AEATfunction_buffer@123@U?$bool_@$00@mpl@3@@Z
	??$assign_functor@V?$bind_t@XV?$mf1@XVJointStateListener@robot_state_publisher@@AEBV?$shared_ptr@$$CBU?$JointState_@V?$allocator@X@std@@@sensor_msgs@@@boost@@@_mfi@boost@@V?$list2@V?$value@PEAVJointStateListener@robot_state_publisher@@@_bi@boost@@U?$arg@$00@3@@_bi@3@@_bi@boost@@@?$basic_vtable1@XAEBV?$shared_ptr@$$CBU?$JointState_@V?$allocator@X@std@@@sensor_msgs@@@boost@@@function@detail@boost@@AEBAXV?$bind_t@XV?$mf1@XVJointStateListener@robot_state_publisher@@AEBV?$shared_ptr@$$CBU?$JointState_@V?$allocator@X@std@@@sensor_msgs@@@boost@@@_mfi@boost@@V?$list2@V?$value@PEAVJointStateListener@robot_state_publisher@@@_bi@boost@@U?$arg@$00@3@@_bi@3@@_bi@3@AEATfunction_buffer@123@U?$bool_@$00@mpl@3@@Z
	??$assign_functor@V?$function@$$A6AXAEBV?$shared_ptr@$$CBU?$JointState_@V?$allocator@X@std@@@sensor_msgs@@@boost@@@Z@boost@@@?$basic_vtable1@XV?$shared_ptr@$$CBU?$JointState_@V?$allocator@X@std@@@sensor_msgs@@@boost@@@function@detail@boost@@AEBAXV?$function@$$A6AXAEBV?$shared_ptr@$$CBU?$JointState_@V?$allocator@X@std@@@sensor_msgs@@@boost@@@Z@3@AEATfunction_buffer@123@U?$bool_@$0A@@mpl@3@@Z
	??$assign_to@U?$DefaultMessageCreator@U?$JointState_@V?$allocator@X@std@@@sensor_msgs@@@ros@@@?$basic_vtable0@V?$shared_ptr@U?$JointState_@V?$allocator@X@std@@@sensor_msgs@@@boost@@@function@detail@boost@@AEBA_NU?$DefaultMessageCreator@U?$JointState_@V?$allocator@X@std@@@sensor_msgs@@@ros@@AEATfunction_buffer@123@Ufunction_obj_tag@123@@Z
	??$assign_to@U?$DefaultMessageCreator@U?$JointState_@V?$allocator@X@std@@@sensor_msgs@@@ros@@@?$basic_vtable0@V?$shared_ptr@U?$JointState_@V?$allocator@X@std@@@sensor_msgs@@@boost@@@function@detail@boost@@QEBA_NU?$DefaultMessageCreator@U?$JointState_@V?$allocator@X@std@@@sensor_msgs@@@ros@@AEATfunction_buffer@123@@Z
	??$assign_to@U?$DefaultMessageCreator@U?$JointState_@V?$allocator@X@std@@@sensor_msgs@@@ros@@@?$function0@V?$shared_ptr@U?$JointState_@V?$allocator@X@std@@@sensor_msgs@@@boost@@@boost@@AEAAXU?$DefaultMessageCreator@U?$JointState_@V?$allocator@X@std@@@sensor_msgs@@@ros@@@Z
	??$assign_to@V?$bind_t@XV?$mf1@XVJointStateListener@robot_state_publisher@@AEBUTimerEvent@ros@@@_mfi@boost@@V?$list2@V?$value@PEAVJointStateListener@robot_state_publisher@@@_bi@boost@@U?$arg@$00@3@@_bi@3@@_bi@boost@@@?$basic_vtable1@XAEBUTimerEvent@ros@@@function@detail@boost@@AEBA_NV?$bind_t@XV?$mf1@XVJointStateListener@robot_state_publisher@@AEBUTimerEvent@ros@@@_mfi@boost@@V?$list2@V?$value@PEAVJointStateListener@robot_state_publisher@@@_bi@boost@@U?$arg@$00@3@@_bi@3@@_bi@3@AEATfunction_buffer@123@Ufunction_obj_tag@123@@Z
	??$assign_to@V?$bind_t@XV?$mf1@XVJointStateListener@robot_state_publisher@@AEBUTimerEvent@ros@@@_mfi@boost@@V?$list2@V?$value@PEAVJointStateListener@robot_state_publisher@@@_bi@boost@@U?$arg@$00@3@@_bi@3@@_bi@boost@@@?$basic_vtable1@XAEBUTimerEvent@ros@@@function@detail@boost@@QEBA_NV?$bind_t@XV?$mf1@XVJointStateListener@robot_state_publisher@@AEBUTimerEvent@ros@@@_mfi@boost@@V?$list2@V?$value@PEAVJointStateListener@robot_state_publisher@@@_bi@boost@@U?$arg@$00@3@@_bi@3@@_bi@3@AEATfunction_buffer@123@@Z
	??$assign_to@V?$bind_t@XV?$mf1@XVJointStateListener@robot_state_publisher@@AEBUTimerEvent@ros@@@_mfi@boost@@V?$list2@V?$value@PEAVJointStateListener@robot_state_publisher@@@_bi@boost@@U?$arg@$00@3@@_bi@3@@_bi@boost@@@?$function1@XAEBUTimerEvent@ros@@@boost@@AEAAXV?$bind_t@XV?$mf1@XVJointStateListener@robot_state_publisher@@AEBUTimerEvent@ros@@@_mfi@boost@@V?$list2@V?$value@PEAVJointStateListener@robot_state_publisher@@@_bi@boost@@U?$arg@$00@3@@_bi@3@@_bi@1@@Z
	??$assign_to@V?$bind_t@XV?$mf1@XVJointStateListener@robot_state_publisher@@AEBV?$shared_ptr@$$CBU?$JointState_@V?$allocator@X@std@@@sensor_msgs@@@boost@@@_mfi@boost@@V?$list2@V?$value@PEAVJointStateListener@robot_state_publisher@@@_bi@boost@@U?$arg@$00@3@@_bi@3@@_bi@boost@@@?$basic_vtable1@XAEBV?$shared_ptr@$$CBU?$JointState_@V?$allocator@X@std@@@sensor_msgs@@@boost@@@function@detail@boost@@AEBA_NV?$bind_t@XV?$mf1@XVJointStateListener@robot_state_publisher@@AEBV?$shared_ptr@$$CBU?$JointState_@V?$allocator@X@std@@@sensor_msgs@@@boost@@@_mfi@boost@@V?$list2@V?$value@PEAVJointStateListener@robot_state_publisher@@@_bi@boost@@U?$arg@$00@3@@_bi@3@@_bi@3@AEATfunction_buffer@123@Ufunction_obj_tag@123@@Z
	??$assign_to@V?$bind_t@XV?$mf1@XVJointStateListener@robot_state_publisher@@AEBV?$shared_ptr@$$CBU?$JointState_@V?$allocator@X@std@@@sensor_msgs@@@boost@@@_mfi@boost@@V?$list2@V?$value@PEAVJointStateListener@robot_state_publisher@@@_bi@boost@@U?$arg@$00@3@@_bi@3@@_bi@boost@@@?$basic_vtable1@XAEBV?$shared_ptr@$$CBU?$JointState_@V?$allocator@X@std@@@sensor_msgs@@@boost@@@function@detail@boost@@QEBA_NV?$bind_t@XV?$mf1@XVJointStateListener@robot_state_publisher@@AEBV?$shared_ptr@$$CBU?$JointState_@V?$allocator@X@std@@@sensor_msgs@@@boost@@@_mfi@boost@@V?$list2@V?$value@PEAVJointStateListener@robot_state_publisher@@@_bi@boost@@U?$arg@$00@3@@_bi@3@@_bi@3@AEATfunction_buffer@123@@Z
	??$assign_to@V?$bind_t@XV?$mf1@XVJointStateListener@robot_state_publisher@@AEBV?$shared_ptr@$$CBU?$JointState_@V?$allocator@X@std@@@sensor_msgs@@@boost@@@_mfi@boost@@V?$list2@V?$value@PEAVJointStateListener@robot_state_publisher@@@_bi@boost@@U?$arg@$00@3@@_bi@3@@_bi@boost@@@?$function1@XAEBV?$shared_ptr@$$CBU?$JointState_@V?$allocator@X@std@@@sensor_msgs@@@boost@@@boost@@AEAAXV?$bind_t@XV?$mf1@XVJointStateListener@robot_state_publisher@@AEBV?$shared_ptr@$$CBU?$JointState_@V?$allocator@X@std@@@sensor_msgs@@@boost@@@_mfi@boost@@V?$list2@V?$value@PEAVJointStateListener@robot_state_publisher@@@_bi@boost@@U?$arg@$00@3@@_bi@3@@_bi@1@@Z
	??$assign_to@V?$function@$$A6AXAEBV?$shared_ptr@$$CBU?$JointState_@V?$allocator@X@std@@@sensor_msgs@@@boost@@@Z@boost@@@?$basic_vtable1@XV?$shared_ptr@$$CBU?$JointState_@V?$allocator@X@std@@@sensor_msgs@@@boost@@@function@detail@boost@@AEBA_NV?$function@$$A6AXAEBV?$shared_ptr@$$CBU?$JointState_@V?$allocator@X@std@@@sensor_msgs@@@boost@@@Z@3@AEATfunction_buffer@123@Ufunction_obj_tag@123@@Z
	??$assign_to@V?$function@$$A6AXAEBV?$shared_ptr@$$CBU?$JointState_@V?$allocator@X@std@@@sensor_msgs@@@boost@@@Z@boost@@@?$basic_vtable1@XV?$shared_ptr@$$CBU?$JointState_@V?$allocator@X@std@@@sensor_msgs@@@boost@@@function@detail@boost@@QEBA_NV?$function@$$A6AXAEBV?$shared_ptr@$$CBU?$JointState_@V?$allocator@X@std@@@sensor_msgs@@@boost@@@Z@3@AEATfunction_buffer@123@@Z
	??$assign_to@V?$function@$$A6AXAEBV?$shared_ptr@$$CBU?$JointState_@V?$allocator@X@std@@@sensor_msgs@@@boost@@@Z@boost@@@?$function1@XV?$shared_ptr@$$CBU?$JointState_@V?$allocator@X@std@@@sensor_msgs@@@boost@@@boost@@AEAAXV?$function@$$A6AXAEBV?$shared_ptr@$$CBU?$JointState_@V?$allocator@X@std@@@sensor_msgs@@@boost@@@Z@1@@Z
	??$bind@XVJointStateListener@robot_state_publisher@@AEBUTimerEvent@ros@@PEAV12@U?$arg@$00@boost@@@boost@@YA?AV?$bind_t@XV?$mf1@XVJointStateListener@robot_state_publisher@@AEBUTimerEvent@ros@@@_mfi@boost@@V?$list2@V?$value@PEAVJointStateListener@robot_state_publisher@@@_bi@boost@@U?$arg@$00@3@@_bi@3@@_bi@0@P8JointStateListener@robot_state_publisher@@EAAXAEBUTimerEvent@ros@@@ZPEAV34@U?$arg@$00@0@@Z
	??$bind@XVJointStateListener@robot_state_publisher@@AEBV?$shared_ptr@$$CBU?$JointState_@V?$allocator@X@std@@@sensor_msgs@@@boost@@PEAV12@U?$arg@$00@4@@boost@@YA?AV?$bind_t@XV?$mf1@XVJointStateListener@robot_state_publisher@@AEBV?$shared_ptr@$$CBU?$JointState_@V?$allocator@X@std@@@sensor_msgs@@@boost@@@_mfi@boost@@V?$list2@V?$value@PEAVJointStateListener@robot_state_publisher@@@_bi@boost@@U?$arg@$00@3@@_bi@3@@_bi@0@P8JointStateListener@robot_state_publisher@@EAAXAEBV?$shared_ptr@$$CBU?$JointState_@V?$allocator@X@std@@@sensor_msgs@@@0@@ZPEAV34@U?$arg@$00@0@@Z
	??$const_pointer_cast@U?$JointState_@V?$allocator@X@std@@@sensor_msgs@@$$CBU12@@boost@@YA?AV?$shared_ptr@U?$JointState_@V?$allocator@X@std@@@sensor_msgs@@@0@$$QEAV?$shared_ptr@$$CBU?$JointState_@V?$allocator@X@std@@@sensor_msgs@@@0@@Z
	??$const_pointer_cast@U?$JointState_@V?$allocator@X@std@@@sensor_msgs@@$$CBU12@@boost@@YA?AV?$shared_ptr@U?$JointState_@V?$allocator@X@std@@@sensor_msgs@@@0@AEBV?$shared_ptr@$$CBU?$JointState_@V?$allocator@X@std@@@sensor_msgs@@@0@@Z
	??$const_pointer_cast@X$$CBX@boost@@YA?AV?$shared_ptr@X@0@AEBV?$shared_ptr@$$CBX@0@@Z
	??$construct@U?$pair@$$CBV?$basic_string@DU?$char_traits@D@std@@V?$allocator@D@2@@std@@N@std@@AEBUpiecewise_construct_t@2@V?$tuple@AEBV?$basic_string@DU?$char_traits@D@std@@V?$allocator@D@2@@std@@@2@V?$tuple@$$V@2@@?$_Default_allocator_traits@V?$allocator@U?$_Tree_node@U?$pair@$$CBV?$basic_string@DU?$char_traits@D@std@@V?$allocator@D@2@@std@@N@std@@PEAX@std@@@std@@@std@@SAXAEAV?$allocator@U?$_Tree_node@U?$pair@$$CBV?$basic_string@DU?$char_traits@D@std@@V?$allocator@D@2@@std@@N@std@@PEAX@std@@@1@QEAU?$pair@$$CBV?$basic_string@DU?$char_traits@D@std@@V?$allocator@D@2@@std@@N@1@AEBUpiecewise_construct_t@1@$$QEAV?$tuple@AEBV?$basic_string@DU?$char_traits@D@std@@V?$allocator@D@2@@std@@@1@$$QEAV?$tuple@$$V@1@@Z
	??$construct@U?$pair@$$CBV?$basic_string@DU?$char_traits@D@std@@V?$allocator@D@2@@std@@N@std@@U?$pair@V?$basic_string@DU?$char_traits@D@std@@V?$allocator@D@2@@std@@N@2@@?$_Default_allocator_traits@V?$allocator@U?$_Tree_node@U?$pair@$$CBV?$basic_string@DU?$char_traits@D@std@@V?$allocator@D@2@@std@@N@std@@PEAX@std@@@std@@@std@@SAXAEAV?$allocator@U?$_Tree_node@U?$pair@$$CBV?$basic_string@DU?$char_traits@D@std@@V?$allocator@D@2@@std@@N@std@@PEAX@std@@@1@QEAU?$pair@$$CBV?$basic_string@DU?$char_traits@D@std@@V?$allocator@D@2@@std@@N@1@$$QEAU?$pair@V?$basic_string@DU?$char_traits@D@std@@V?$allocator@D@2@@std@@N@1@@Z
	??$construct@U?$pair@$$CBV?$basic_string@DU?$char_traits@D@std@@V?$allocator@D@2@@std@@V?$shared_ptr@VJointMimic@urdf@@@2@@std@@AEAU12@@?$_Default_allocator_traits@V?$allocator@U?$_Tree_node@U?$pair@$$CBV?$basic_string@DU?$char_traits@D@std@@V?$allocator@D@2@@std@@V?$shared_ptr@VJointMimic@urdf@@@2@@std@@PEAX@std@@@std@@@std@@SAXAEAV?$allocator@U?$_Tree_node@U?$pair@$$CBV?$basic_string@DU?$char_traits@D@std@@V?$allocator@D@2@@std@@V?$shared_ptr@VJointMimic@urdf@@@2@@std@@PEAX@std@@@1@QEAU?$pair@$$CBV?$basic_string@DU?$char_traits@D@std@@V?$allocator@D@2@@std@@V?$shared_ptr@VJointMimic@urdf@@@2@@1@AEAU31@@Z
	??$construct@U?$pair@$$CBV?$basic_string@DU?$char_traits@D@std@@V?$allocator@D@2@@std@@V?$shared_ptr@VJointMimic@urdf@@@2@@std@@U?$pair@V?$basic_string@DU?$char_traits@D@std@@V?$allocator@D@2@@std@@V?$shared_ptr@VJointMimic@urdf@@@2@@2@@?$_Default_allocator_traits@V?$allocator@U?$_Tree_node@U?$pair@$$CBV?$basic_string@DU?$char_traits@D@std@@V?$allocator@D@2@@std@@V?$shared_ptr@VJointMimic@urdf@@@2@@std@@PEAX@std@@@std@@@std@@SAXAEAV?$allocator@U?$_Tree_node@U?$pair@$$CBV?$basic_string@DU?$char_traits@D@std@@V?$allocator@D@2@@std@@V?$shared_ptr@VJointMimic@urdf@@@2@@std@@PEAX@std@@@1@QEAU?$pair@$$CBV?$basic_string@DU?$char_traits@D@std@@V?$allocator@D@2@@std@@V?$shared_ptr@VJointMimic@urdf@@@2@@1@$$QEAU?$pair@V?$basic_string@DU?$char_traits@D@std@@V?$allocator@D@2@@std@@V?$shared_ptr@VJointMimic@urdf@@@2@@1@@Z
	??$construct@U?$pair@$$CBV?$basic_string@DU?$char_traits@D@std@@V?$allocator@D@2@@std@@VTime@ros@@@std@@AEBUpiecewise_construct_t@2@V?$tuple@AEBV?$basic_string@DU?$char_traits@D@std@@V?$allocator@D@2@@std@@@2@V?$tuple@$$V@2@@?$_Default_allocator_traits@V?$allocator@U?$_Tree_node@U?$pair@$$CBV?$basic_string@DU?$char_traits@D@std@@V?$allocator@D@2@@std@@VTime@ros@@@std@@PEAX@std@@@std@@@std@@SAXAEAV?$allocator@U?$_Tree_node@U?$pair@$$CBV?$basic_string@DU?$char_traits@D@std@@V?$allocator@D@2@@std@@VTime@ros@@@std@@PEAX@std@@@1@QEAU?$pair@$$CBV?$basic_string@DU?$char_traits@D@std@@V?$allocator@D@2@@std@@VTime@ros@@@1@AEBUpiecewise_construct_t@1@$$QEAV?$tuple@AEBV?$basic_string@DU?$char_traits@D@std@@V?$allocator@D@2@@std@@@1@$$QEAV?$tuple@$$V@1@@Z
	??$construct@V?$basic_string@DU?$char_traits@D@std@@V?$allocator@D@2@@std@@$$V@?$_Default_allocator_traits@V?$allocator@V?$basic_string@DU?$char_traits@D@std@@V?$allocator@D@2@@std@@@std@@@std@@SAXAEAV?$allocator@V?$basic_string@DU?$char_traits@D@std@@V?$allocator@D@2@@std@@@1@QEAV?$basic_string@DU?$char_traits@D@std@@V?$allocator@D@2@@1@@Z
	??$construct@V?$basic_string@DU?$char_traits@D@std@@V?$allocator@D@2@@std@@AEAV12@@?$_Default_allocator_traits@V?$allocator@V?$basic_string@DU?$char_traits@D@std@@V?$allocator@D@2@@std@@@std@@@std@@SAXAEAV?$allocator@V?$basic_string@DU?$char_traits@D@std@@V?$allocator@D@2@@std@@@1@QEAV?$basic_string@DU?$char_traits@D@std@@V?$allocator@D@2@@1@AEAV31@@Z
	??$construct@V?$basic_string@DU?$char_traits@D@std@@V?$allocator@D@2@@std@@V12@@?$_Default_allocator_traits@V?$allocator@V?$basic_string@DU?$char_traits@D@std@@V?$allocator@D@2@@std@@@std@@@std@@SAXAEAV?$allocator@V?$basic_string@DU?$char_traits@D@std@@V?$allocator@D@2@@std@@@1@QEAV?$basic_string@DU?$char_traits@D@std@@V?$allocator@D@2@@1@$$QEAV31@@Z
	??$copyMessageIfNecessary@$$CBU?$JointState_@V?$allocator@X@std@@@sensor_msgs@@@?$MessageEvent@$$CBU?$JointState_@V?$allocator@X@std@@@sensor_msgs@@@ros@@AEBA?AV?$shared_ptr@$$CBU?$JointState_@V?$allocator@X@std@@@sensor_msgs@@@boost@@XZ
	??$copyMessageIfNecessary@$$CBX@?$MessageEvent@$$CBX@ros@@AEBA?AV?$shared_ptr@$$CBX@boost@@XZ
	??$createTimer@VJointStateListener@robot_state_publisher@@@NodeHandle@ros@@QEBA?AVTimer@1@VDuration@1@P8JointStateListener@robot_state_publisher@@EAAXAEBUTimerEvent@1@@ZPEAV45@_N4@Z
	??$datatype@U?$JointState_@V?$allocator@X@std@@@sensor_msgs@@@message_traits@ros@@YAPEBDXZ
	??$deserialize@IUIStream@serialization@ros@@@serialization@ros@@YAXAEAUIStream@01@AEAI@Z
	??$deserialize@NV?$allocator@N@std@@UIStream@serialization@ros@@@serialization@ros@@YAXAEAUIStream@01@AEAV?$vector@NV?$allocator@N@std@@@std@@@Z
	??$deserialize@U?$Header_@V?$allocator@X@std@@@std_msgs@@UIStream@serialization@ros@@@serialization@ros@@YAXAEAUIStream@01@AEAU?$Header_@V?$allocator@X@std@@@std_msgs@@@Z
	??$deserialize@U?$JointState_@V?$allocator@X@std@@@sensor_msgs@@UIStream@serialization@ros@@@serialization@ros@@YAXAEAUIStream@01@AEAU?$JointState_@V?$allocator@X@std@@@sensor_msgs@@@Z
	??$deserialize@V?$basic_string@DU?$char_traits@D@std@@V?$allocator@D@2@@std@@UIStream@serialization@ros@@@serialization@ros@@YAXAEAUIStream@01@AEAV?$basic_string@DU?$char_traits@D@std@@V?$allocator@D@2@@std@@@Z
	??$deserialize@V?$basic_string@DU?$char_traits@D@std@@V?$allocator@D@2@@std@@V?$allocator@V?$basic_string@DU?$char_traits@D@std@@V?$allocator@D@2@@std@@@2@UIStream@serialization@ros@@@serialization@ros@@YAXAEAUIStream@01@AEAV?$vector@V?$basic_string@DU?$char_traits@D@std@@V?$allocator@D@2@@std@@V?$allocator@V?$basic_string@DU?$char_traits@D@std@@V?$allocator@D@2@@std@@@2@@std@@@Z
	??$deserialize@VTime@ros@@UIStream@serialization@2@@serialization@ros@@YAXAEAUIStream@01@AEAVTime@1@@Z
	??$destroy@U?$TransformStamped_@V?$allocator@X@std@@@geometry_msgs@@@?$_Default_allocator_traits@V?$allocator@U?$TransformStamped_@V?$allocator@X@std@@@geometry_msgs@@@std@@@std@@SAXAEAV?$allocator@U?$TransformStamped_@V?$allocator@X@std@@@geometry_msgs@@@1@QEAU?$TransformStamped_@V?$allocator@X@std@@@geometry_msgs@@@Z
	??$destroy@U?$pair@$$CBV?$basic_string@DU?$char_traits@D@std@@V?$allocator@D@2@@std@@N@std@@@?$_Default_allocator_traits@V?$allocator@U?$_Tree_node@U?$pair@$$CBV?$basic_string@DU?$char_traits@D@std@@V?$allocator@D@2@@std@@N@std@@PEAX@std@@@std@@@std@@SAXAEAV?$allocator@U?$_Tree_node@U?$pair@$$CBV?$basic_string@DU?$char_traits@D@std@@V?$allocator@D@2@@std@@N@std@@PEAX@std@@@1@QEAU?$pair@$$CBV?$basic_string@DU?$char_traits@D@std@@V?$allocator@D@2@@std@@N@1@@Z
	??$destroy@U?$pair@$$CBV?$basic_string@DU?$char_traits@D@std@@V?$allocator@D@2@@std@@V12@@std@@@?$_Default_allocator_traits@V?$allocator@U?$_Tree_node@U?$pair@$$CBV?$basic_string@DU?$char_traits@D@std@@V?$allocator@D@2@@std@@V12@@std@@PEAX@std@@@std@@@std@@SAXAEAV?$allocator@U?$_Tree_node@U?$pair@$$CBV?$basic_string@DU?$char_traits@D@std@@V?$allocator@D@2@@std@@V12@@std@@PEAX@std@@@1@QEAU?$pair@$$CBV?$basic_string@DU?$char_traits@D@std@@V?$allocator@D@2@@std@@V12@@1@@Z
	??$destroy@U?$pair@$$CBV?$basic_string@DU?$char_traits@D@std@@V?$allocator@D@2@@std@@V?$shared_ptr@VJoint@urdf@@@2@@std@@@?$_Default_allocator_traits@V?$allocator@U?$_Tree_node@U?$pair@$$CBV?$basic_string@DU?$char_traits@D@std@@V?$allocator@D@2@@std@@V?$shared_ptr@VJoint@urdf@@@2@@std@@PEAX@std@@@std@@@std@@SAXAEAV?$allocator@U?$_Tree_node@U?$pair@$$CBV?$basic_string@DU?$char_traits@D@std@@V?$allocator@D@2@@std@@V?$shared_ptr@VJoint@urdf@@@2@@std@@PEAX@std@@@1@QEAU?$pair@$$CBV?$basic_string@DU?$char_traits@D@std@@V?$allocator@D@2@@std@@V?$shared_ptr@VJoint@urdf@@@2@@1@@Z
	??$destroy@U?$pair@$$CBV?$basic_string@DU?$char_traits@D@std@@V?$allocator@D@2@@std@@V?$shared_ptr@VJointMimic@urdf@@@2@@std@@@?$_Default_allocator_traits@V?$allocator@U?$_Tree_node@U?$pair@$$CBV?$basic_string@DU?$char_traits@D@std@@V?$allocator@D@2@@std@@V?$shared_ptr@VJointMimic@urdf@@@2@@std@@PEAX@std@@@std@@@std@@SAXAEAV?$allocator@U?$_Tree_node@U?$pair@$$CBV?$basic_string@DU?$char_traits@D@std@@V?$allocator@D@2@@std@@V?$shared_ptr@VJointMimic@urdf@@@2@@std@@PEAX@std@@@1@QEAU?$pair@$$CBV?$basic_string@DU?$char_traits@D@std@@V?$allocator@D@2@@std@@V?$shared_ptr@VJointMimic@urdf@@@2@@1@@Z
	??$destroy@U?$pair@$$CBV?$basic_string@DU?$char_traits@D@std@@V?$allocator@D@2@@std@@V?$shared_ptr@VLink@urdf@@@2@@std@@@?$_Default_allocator_traits@V?$allocator@U?$_Tree_node@U?$pair@$$CBV?$basic_string@DU?$char_traits@D@std@@V?$allocator@D@2@@std@@V?$shared_ptr@VLink@urdf@@@2@@std@@PEAX@std@@@std@@@std@@SAXAEAV?$allocator@U?$_Tree_node@U?$pair@$$CBV?$basic_string@DU?$char_traits@D@std@@V?$allocator@D@2@@std@@V?$shared_ptr@VLink@urdf@@@2@@std@@PEAX@std@@@1@QEAU?$pair@$$CBV?$basic_string@DU?$char_traits@D@std@@V?$allocator@D@2@@std@@V?$shared_ptr@VLink@urdf@@@2@@1@@Z
	??$destroy@U?$pair@$$CBV?$basic_string@DU?$char_traits@D@std@@V?$allocator@D@2@@std@@V?$shared_ptr@VMaterial@urdf@@@2@@std@@@?$_Default_allocator_traits@V?$allocator@U?$_Tree_node@U?$pair@$$CBV?$basic_string@DU?$char_traits@D@std@@V?$allocator@D@2@@std@@V?$shared_ptr@VMaterial@urdf@@@2@@std@@PEAX@std@@@std@@@std@@SAXAEAV?$allocator@U?$_Tree_node@U?$pair@$$CBV?$basic_string@DU?$char_traits@D@std@@V?$allocator@D@2@@std@@V?$shared_ptr@VMaterial@urdf@@@2@@std@@PEAX@std@@@1@QEAU?$pair@$$CBV?$basic_string@DU?$char_traits@D@std@@V?$allocator@D@2@@std@@V?$shared_ptr@VMaterial@urdf@@@2@@1@@Z
	??$destroy@U?$pair@$$CBV?$basic_string@DU?$char_traits@D@std@@V?$allocator@D@2@@std@@VSegmentPair@robot_state_publisher@@@std@@@?$_Default_allocator_traits@V?$allocator@U?$_Tree_node@U?$pair@$$CBV?$basic_string@DU?$char_traits@D@std@@V?$allocator@D@2@@std@@VSegmentPair@robot_state_publisher@@@std@@PEAX@std@@@std@@@std@@SAXAEAV?$allocator@U?$_Tree_node@U?$pair@$$CBV?$basic_string@DU?$char_traits@D@std@@V?$allocator@D@2@@std@@VSegmentPair@robot_state_publisher@@@std@@PEAX@std@@@1@QEAU?$pair@$$CBV?$basic_string@DU?$char_traits@D@std@@V?$allocator@D@2@@std@@VSegmentPair@robot_state_publisher@@@1@@Z
	??$destroy@U?$pair@$$CBV?$basic_string@DU?$char_traits@D@std@@V?$allocator@D@2@@std@@VTime@ros@@@std@@@?$_Default_allocator_traits@V?$allocator@U?$_Tree_node@U?$pair@$$CBV?$basic_string@DU?$char_traits@D@std@@V?$allocator@D@2@@std@@VTime@ros@@@std@@PEAX@std@@@std@@@std@@SAXAEAV?$allocator@U?$_Tree_node@U?$pair@$$CBV?$basic_string@DU?$char_traits@D@std@@V?$allocator@D@2@@std@@VTime@ros@@@std@@PEAX@std@@@1@QEAU?$pair@$$CBV?$basic_string@DU?$char_traits@D@std@@V?$allocator@D@2@@std@@VTime@ros@@@1@@Z
	??$destroy@U?$pair@$$CBV?$basic_string@DU?$char_traits@D@std@@V?$allocator@D@2@@std@@VTreeElement@KDL@@@std@@@?$_Default_allocator_traits@V?$allocator@U?$_Tree_node@U?$pair@$$CBV?$basic_string@DU?$char_traits@D@std@@V?$allocator@D@2@@std@@VTreeElement@KDL@@@std@@PEAX@std@@@std@@@std@@SAXAEAV?$allocator@U?$_Tree_node@U?$pair@$$CBV?$basic_string@DU?$char_traits@D@std@@V?$allocator@D@2@@std@@VTreeElement@KDL@@@std@@PEAX@std@@@1@QEAU?$pair@$$CBV?$basic_string@DU?$char_traits@D@std@@V?$allocator@D@2@@std@@VTreeElement@KDL@@@1@@Z
	??$destroy@V?$basic_string@DU?$char_traits@D@std@@V?$allocator@D@2@@std@@@?$_Default_allocator_traits@V?$allocator@V?$basic_string@DU?$char_traits@D@std@@V?$allocator@D@2@@std@@@std@@@std@@SAXAEAV?$allocator@V?$basic_string@DU?$char_traits@D@std@@V?$allocator@D@2@@std@@@1@QEAV?$basic_string@DU?$char_traits@D@std@@V?$allocator@D@2@@1@@Z
	??$distance@PEAN@std@@YA_JPEAN0@Z
	??$distance@PEAV?$basic_string@DU?$char_traits@D@std@@V?$allocator@D@2@@std@@@std@@YA_JPEAV?$basic_string@DU?$char_traits@D@std@@V?$allocator@D@2@@0@0@Z
	??$emplace@U?$pair@V?$basic_string@DU?$char_traits@D@std@@V?$allocator@D@2@@std@@N@std@@@?$_Tree@V?$_Tmap_traits@V?$basic_string@DU?$char_traits@D@std@@V?$allocator@D@2@@std@@NU?$less@V?$basic_string@DU?$char_traits@D@std@@V?$allocator@D@2@@std@@@2@V?$allocator@U?$pair@$$CBV?$basic_string@DU?$char_traits@D@std@@V?$allocator@D@2@@std@@N@std@@@2@$0A@@std@@@std@@QEAA?AU?$pair@V?$_Tree_iterator@V?$_Tree_val@U?$_Tree_simple_types@U?$pair@$$CBV?$basic_string@DU?$char_traits@D@std@@V?$allocator@D@2@@std@@N@std@@@std@@@std@@@std@@_N@1@$$QEAU?$pair@V?$basic_string@DU?$char_traits@D@std@@V?$allocator@D@2@@std@@N@1@@Z
	??$emplace@U?$pair@V?$basic_string@DU?$char_traits@D@std@@V?$allocator@D@2@@std@@V?$shared_ptr@VJointMimic@urdf@@@2@@std@@@?$_Tree@V?$_Tmap_traits@V?$basic_string@DU?$char_traits@D@std@@V?$allocator@D@2@@std@@V?$shared_ptr@VJointMimic@urdf@@@2@U?$less@V?$basic_string@DU?$char_traits@D@std@@V?$allocator@D@2@@std@@@2@V?$allocator@U?$pair@$$CBV?$basic_string@DU?$char_traits@D@std@@V?$allocator@D@2@@std@@V?$shared_ptr@VJointMimic@urdf@@@2@@std@@@2@$0A@@std@@@std@@QEAA?AU?$pair@V?$_Tree_iterator@V?$_Tree_val@U?$_Tree_simple_types@U?$pair@$$CBV?$basic_string@DU?$char_traits@D@std@@V?$allocator@D@2@@std@@V?$shared_ptr@VJointMimic@urdf@@@2@@std@@@std@@@std@@@std@@_N@1@$$QEAU?$pair@V?$basic_string@DU?$char_traits@D@std@@V?$allocator@D@2@@std@@V?$shared_ptr@VJointMimic@urdf@@@2@@1@@Z
	??$enable_current_exception@U?$error_info_injector@Vbad_function_call@boost@@@exception_detail@boost@@@boost@@YA?AV?$clone_impl@U?$error_info_injector@Vbad_function_call@boost@@@exception_detail@boost@@@exception_detail@0@AEBU?$error_info_injector@Vbad_function_call@boost@@@20@@Z
	??$enable_error_info@Vbad_function_call@boost@@@boost@@YA?AU?$error_info_injector@Vbad_function_call@boost@@@exception_detail@0@AEBVbad_function_call@0@@Z
	??$exchange@PEAU?$_Tree_node@U?$pair@$$CBV?$basic_string@DU?$char_traits@D@std@@V?$allocator@D@2@@std@@N@std@@PEAX@std@@$$T@std@@YAPEAU?$_Tree_node@U?$pair@$$CBV?$basic_string@DU?$char_traits@D@std@@V?$allocator@D@2@@std@@N@std@@PEAX@0@AEAPEAU10@$$QEA$$T@Z
	??$exchange@PEAU?$_Tree_node@U?$pair@$$CBV?$basic_string@DU?$char_traits@D@std@@V?$allocator@D@2@@std@@N@std@@PEAX@std@@AEAPEAU12@@std@@YAPEAU?$_Tree_node@U?$pair@$$CBV?$basic_string@DU?$char_traits@D@std@@V?$allocator@D@2@@std@@N@std@@PEAX@0@AEAPEAU10@0@Z
	??$exchange@PEAU?$_Tree_node@U?$pair@$$CBV?$basic_string@DU?$char_traits@D@std@@V?$allocator@D@2@@std@@V12@@std@@PEAX@std@@AEAPEAU12@@std@@YAPEAU?$_Tree_node@U?$pair@$$CBV?$basic_string@DU?$char_traits@D@std@@V?$allocator@D@2@@std@@V12@@std@@PEAX@0@AEAPEAU10@0@Z
	??$exchange@PEAU?$_Tree_node@U?$pair@$$CBV?$basic_string@DU?$char_traits@D@std@@V?$allocator@D@2@@std@@V?$shared_ptr@VJoint@urdf@@@2@@std@@PEAX@std@@AEAPEAU12@@std@@YAPEAU?$_Tree_node@U?$pair@$$CBV?$basic_string@DU?$char_traits@D@std@@V?$allocator@D@2@@std@@V?$shared_ptr@VJoint@urdf@@@2@@std@@PEAX@0@AEAPEAU10@0@Z
	??$exchange@PEAU?$_Tree_node@U?$pair@$$CBV?$basic_string@DU?$char_traits@D@std@@V?$allocator@D@2@@std@@V?$shared_ptr@VJointMimic@urdf@@@2@@std@@PEAX@std@@$$T@std@@YAPEAU?$_Tree_node@U?$pair@$$CBV?$basic_string@DU?$char_traits@D@std@@V?$allocator@D@2@@std@@V?$shared_ptr@VJointMimic@urdf@@@2@@std@@PEAX@0@AEAPEAU10@$$QEA$$T@Z
	??$exchange@PEAU?$_Tree_node@U?$pair@$$CBV?$basic_string@DU?$char_traits@D@std@@V?$allocator@D@2@@std@@V?$shared_ptr@VJointMimic@urdf@@@2@@std@@PEAX@std@@AEAPEAU12@@std@@YAPEAU?$_Tree_node@U?$pair@$$CBV?$basic_string@DU?$char_traits@D@std@@V?$allocator@D@2@@std@@V?$shared_ptr@VJointMimic@urdf@@@2@@std@@PEAX@0@AEAPEAU10@0@Z
	??$exchange@PEAU?$_Tree_node@U?$pair@$$CBV?$basic_string@DU?$char_traits@D@std@@V?$allocator@D@2@@std@@V?$shared_ptr@VLink@urdf@@@2@@std@@PEAX@std@@AEAPEAU12@@std@@YAPEAU?$_Tree_node@U?$pair@$$CBV?$basic_string@DU?$char_traits@D@std@@V?$allocator@D@2@@std@@V?$shared_ptr@VLink@urdf@@@2@@std@@PEAX@0@AEAPEAU10@0@Z
	??$exchange@PEAU?$_Tree_node@U?$pair@$$CBV?$basic_string@DU?$char_traits@D@std@@V?$allocator@D@2@@std@@V?$shared_ptr@VMaterial@urdf@@@2@@std@@PEAX@std@@AEAPEAU12@@std@@YAPEAU?$_Tree_node@U?$pair@$$CBV?$basic_string@DU?$char_traits@D@std@@V?$allocator@D@2@@std@@V?$shared_ptr@VMaterial@urdf@@@2@@std@@PEAX@0@AEAPEAU10@0@Z
	??$exchange@PEAU?$_Tree_node@U?$pair@$$CBV?$basic_string@DU?$char_traits@D@std@@V?$allocator@D@2@@std@@VSegmentPair@robot_state_publisher@@@std@@PEAX@std@@AEAPEAU12@@std@@YAPEAU?$_Tree_node@U?$pair@$$CBV?$basic_string@DU?$char_traits@D@std@@V?$allocator@D@2@@std@@VSegmentPair@robot_state_publisher@@@std@@PEAX@0@AEAPEAU10@0@Z
	??$exchange@PEAU?$_Tree_node@U?$pair@$$CBV?$basic_string@DU?$char_traits@D@std@@V?$allocator@D@2@@std@@VTime@ros@@@std@@PEAX@std@@$$T@std@@YAPEAU?$_Tree_node@U?$pair@$$CBV?$basic_string@DU?$char_traits@D@std@@V?$allocator@D@2@@std@@VTime@ros@@@std@@PEAX@0@AEAPEAU10@$$QEA$$T@Z
	??$exchange@PEAU?$_Tree_node@U?$pair@$$CBV?$basic_string@DU?$char_traits@D@std@@V?$allocator@D@2@@std@@VTime@ros@@@std@@PEAX@std@@AEAPEAU12@@std@@YAPEAU?$_Tree_node@U?$pair@$$CBV?$basic_string@DU?$char_traits@D@std@@V?$allocator@D@2@@std@@VTime@ros@@@std@@PEAX@0@AEAPEAU10@0@Z
	??$exchange@PEAU?$_Tree_node@U?$pair@$$CBV?$basic_string@DU?$char_traits@D@std@@V?$allocator@D@2@@std@@VTreeElement@KDL@@@std@@PEAX@std@@AEAPEAU12@@std@@YAPEAU?$_Tree_node@U?$pair@$$CBV?$basic_string@DU?$char_traits@D@std@@V?$allocator@D@2@@std@@VTreeElement@KDL@@@std@@PEAX@0@AEAPEAU10@0@Z
	??$forward@AEAN@std@@YAAEANAEAN@Z
	??$forward@AEAPEAU?$_Tree_node@U?$pair@$$CBV?$basic_string@DU?$char_traits@D@std@@V?$allocator@D@2@@std@@N@std@@PEAX@std@@@std@@YAAEAPEAU?$_Tree_node@U?$pair@$$CBV?$basic_string@DU?$char_traits@D@std@@V?$allocator@D@2@@std@@N@std@@PEAX@0@AEAPEAU10@@Z
	??$forward@AEAPEAU?$_Tree_node@U?$pair@$$CBV?$basic_string@DU?$char_traits@D@std@@V?$allocator@D@2@@std@@V?$shared_ptr@VJointMimic@urdf@@@2@@std@@PEAX@std@@@std@@YAAEAPEAU?$_Tree_node@U?$pair@$$CBV?$basic_string@DU?$char_traits@D@std@@V?$allocator@D@2@@std@@V?$shared_ptr@VJointMimic@urdf@@@2@@std@@PEAX@0@AEAPEAU10@@Z
	??$forward@AEAPEAU?$_Tree_node@U?$pair@$$CBV?$basic_string@DU?$char_traits@D@std@@V?$allocator@D@2@@std@@VTime@ros@@@std@@PEAX@std@@@std@@YAAEAPEAU?$_Tree_node@U?$pair@$$CBV?$basic_string@DU?$char_traits@D@std@@V?$allocator@D@2@@std@@VTime@ros@@@std@@PEAX@0@AEAPEAU10@@Z
	??$forward@AEAU?$pair@$$CBV?$basic_string@DU?$char_traits@D@std@@V?$allocator@D@2@@std@@V?$shared_ptr@VJointMimic@urdf@@@2@@std@@@std@@YAAEAU?$pair@$$CBV?$basic_string@DU?$char_traits@D@std@@V?$allocator@D@2@@std@@V?$shared_ptr@VJointMimic@urdf@@@2@@0@AEAU10@@Z
	??$forward@AEAV?$basic_string@DU?$char_traits@D@std@@V?$allocator@D@2@@std@@@std@@YAAEAV?$basic_string@DU?$char_traits@D@std@@V?$allocator@D@2@@0@AEAV10@@Z
	??$forward@AEAV?$shared_ptr@VJointMimic@urdf@@@std@@@std@@YAAEAV?$shared_ptr@VJointMimic@urdf@@@0@AEAV10@@Z
	??$forward@AEBN@std@@YAAEBNAEBN@Z
	??$forward@AEBQEAD@std@@YAAEBQEADAEBQEAD@Z
	??$forward@AEBQEAU?$_Tree_node@U?$pair@$$CBV?$basic_string@DU?$char_traits@D@std@@V?$allocator@D@2@@std@@N@std@@PEAX@std@@@std@@YAAEBQEAU?$_Tree_node@U?$pair@$$CBV?$basic_string@DU?$char_traits@D@std@@V?$allocator@D@2@@std@@N@std@@PEAX@0@AEBQEAU10@@Z
	??$forward@AEBQEAU?$_Tree_node@U?$pair@$$CBV?$basic_string@DU?$char_traits@D@std@@V?$allocator@D@2@@std@@V12@@std@@PEAX@std@@@std@@YAAEBQEAU?$_Tree_node@U?$pair@$$CBV?$basic_string@DU?$char_traits@D@std@@V?$allocator@D@2@@std@@V12@@std@@PEAX@0@AEBQEAU10@@Z
	??$forward@AEBQEAU?$_Tree_node@U?$pair@$$CBV?$basic_string@DU?$char_traits@D@std@@V?$allocator@D@2@@std@@V?$shared_ptr@VJoint@urdf@@@2@@std@@PEAX@std@@@std@@YAAEBQEAU?$_Tree_node@U?$pair@$$CBV?$basic_string@DU?$char_traits@D@std@@V?$allocator@D@2@@std@@V?$shared_ptr@VJoint@urdf@@@2@@std@@PEAX@0@AEBQEAU10@@Z
	??$forward@AEBQEAU?$_Tree_node@U?$pair@$$CBV?$basic_string@DU?$char_traits@D@std@@V?$allocator@D@2@@std@@V?$shared_ptr@VJointMimic@urdf@@@2@@std@@PEAX@std@@@std@@YAAEBQEAU?$_Tree_node@U?$pair@$$CBV?$basic_string@DU?$char_traits@D@std@@V?$allocator@D@2@@std@@V?$shared_ptr@VJointMimic@urdf@@@2@@std@@PEAX@0@AEBQEAU10@@Z
	??$forward@AEBQEAU?$_Tree_node@U?$pair@$$CBV?$basic_string@DU?$char_traits@D@std@@V?$allocator@D@2@@std@@V?$shared_ptr@VLink@urdf@@@2@@std@@PEAX@std@@@std@@YAAEBQEAU?$_Tree_node@U?$pair@$$CBV?$basic_string@DU?$char_traits@D@std@@V?$allocator@D@2@@std@@V?$shared_ptr@VLink@urdf@@@2@@std@@PEAX@0@AEBQEAU10@@Z
	??$forward@AEBQEAU?$_Tree_node@U?$pair@$$CBV?$basic_string@DU?$char_traits@D@std@@V?$allocator@D@2@@std@@V?$shared_ptr@VMaterial@urdf@@@2@@std@@PEAX@std@@@std@@YAAEBQEAU?$_Tree_node@U?$pair@$$CBV?$basic_string@DU?$char_traits@D@std@@V?$allocator@D@2@@std@@V?$shared_ptr@VMaterial@urdf@@@2@@std@@PEAX@0@AEBQEAU10@@Z
	??$forward@AEBQEAU?$_Tree_node@U?$pair@$$CBV?$basic_string@DU?$char_traits@D@std@@V?$allocator@D@2@@std@@VTime@ros@@@std@@PEAX@std@@@std@@YAAEBQEAU?$_Tree_node@U?$pair@$$CBV?$basic_string@DU?$char_traits@D@std@@V?$allocator@D@2@@std@@VTime@ros@@@std@@PEAX@0@AEBQEAU10@@Z
	??$forward@AEBU?$less@V?$basic_string@DU?$char_traits@D@std@@V?$allocator@D@2@@std@@@std@@@std@@YAAEBU?$less@V?$basic_string@DU?$char_traits@D@std@@V?$allocator@D@2@@std@@@0@AEBU10@@Z
	??$forward@AEBUTimerEvent@ros@@@boost@@YAAEBUTimerEvent@ros@@AEBU12@@Z
	??$forward@AEBUTimerEvent@ros@@@std@@YAAEBUTimerEvent@ros@@AEBU12@@Z
	??$forward@AEBUpiecewise_construct_t@std@@@std@@YAAEBUpiecewise_construct_t@0@AEBU10@@Z
	??$forward@AEBV?$allocator@D@std@@@std@@YAAEBV?$allocator@D@0@AEBV10@@Z
	??$forward@AEBV?$basic_string@DU?$char_traits@D@std@@V?$allocator@D@2@@std@@@std@@YAAEBV?$basic_string@DU?$char_traits@D@std@@V?$allocator@D@2@@0@AEBV10@@Z
	??$forward@AEBV?$shared_ptr@$$CBU?$JointState_@V?$allocator@X@std@@@sensor_msgs@@@boost@@@boost@@YAAEBV?$shared_ptr@$$CBU?$JointState_@V?$allocator@X@std@@@sensor_msgs@@@0@AEBV10@@Z
	??$forward@AEBV?$shared_ptr@$$CBU?$JointState_@V?$allocator@X@std@@@sensor_msgs@@@boost@@@std@@YAAEBV?$shared_ptr@$$CBU?$JointState_@V?$allocator@X@std@@@sensor_msgs@@@boost@@AEBV12@@Z
	??$forward@AEB_N@std@@YAAEB_NAEB_N@Z
	??$forward@N@std@@YA$$QEANAEAN@Z
	??$forward@PEAU?$_Tree_node@U?$pair@$$CBV?$basic_string@DU?$char_traits@D@std@@V?$allocator@D@2@@std@@N@std@@PEAX@std@@@std@@YA$$QEAPEAU?$_Tree_node@U?$pair@$$CBV?$basic_string@DU?$char_traits@D@std@@V?$allocator@D@2@@std@@N@std@@PEAX@0@AEAPEAU10@@Z
	??$forward@PEAU?$_Tree_node@U?$pair@$$CBV?$basic_string@DU?$char_traits@D@std@@V?$allocator@D@2@@std@@V?$shared_ptr@VJointMimic@urdf@@@2@@std@@PEAX@std@@@std@@YA$$QEAPEAU?$_Tree_node@U?$pair@$$CBV?$basic_string@DU?$char_traits@D@std@@V?$allocator@D@2@@std@@V?$shared_ptr@VJointMimic@urdf@@@2@@std@@PEAX@0@AEAPEAU10@@Z
	??$forward@PEAU?$_Tree_node@U?$pair@$$CBV?$basic_string@DU?$char_traits@D@std@@V?$allocator@D@2@@std@@VTime@ros@@@std@@PEAX@std@@@std@@YA$$QEAPEAU?$_Tree_node@U?$pair@$$CBV?$basic_string@DU?$char_traits@D@std@@V?$allocator@D@2@@std@@VTime@ros@@@std@@PEAX@0@AEAPEAU10@@Z
	??$forward@U?$less@V?$basic_string@DU?$char_traits@D@std@@V?$allocator@D@2@@std@@@std@@@std@@YA$$QEAU?$less@V?$basic_string@DU?$char_traits@D@std@@V?$allocator@D@2@@std@@@0@AEAU10@@Z
	??$forward@U?$pair@V?$basic_string@DU?$char_traits@D@std@@V?$allocator@D@2@@std@@N@std@@@std@@YA$$QEAU?$pair@V?$basic_string@DU?$char_traits@D@std@@V?$allocator@D@2@@std@@N@0@AEAU10@@Z
	??$forward@U?$pair@V?$basic_string@DU?$char_traits@D@std@@V?$allocator@D@2@@std@@V?$shared_ptr@VJointMimic@urdf@@@2@@std@@@std@@YA$$QEAU?$pair@V?$basic_string@DU?$char_traits@D@std@@V?$allocator@D@2@@std@@V?$shared_ptr@VJointMimic@urdf@@@2@@0@AEAU10@@Z
	??$forward@U_One_then_variadic_args_t@std@@@std@@YA$$QEAU_One_then_variadic_args_t@0@AEAU10@@Z
	??$forward@U_Zero_then_variadic_args_t@std@@@std@@YA$$QEAU_Zero_then_variadic_args_t@0@AEAU10@@Z
	??$forward@V?$_Tree_iterator@V?$_Tree_val@U?$_Tree_simple_types@U?$pair@$$CBV?$basic_string@DU?$char_traits@D@std@@V?$allocator@D@2@@std@@N@std@@@std@@@std@@@std@@@std@@YA$$QEAV?$_Tree_iterator@V?$_Tree_val@U?$_Tree_simple_types@U?$pair@$$CBV?$basic_string@DU?$char_traits@D@std@@V?$allocator@D@2@@std@@N@std@@@std@@@std@@@0@AEAV10@@Z
	??$forward@V?$_Tree_iterator@V?$_Tree_val@U?$_Tree_simple_types@U?$pair@$$CBV?$basic_string@DU?$char_traits@D@std@@V?$allocator@D@2@@std@@V?$shared_ptr@VJointMimic@urdf@@@2@@std@@@std@@@std@@@std@@@std@@YA$$QEAV?$_Tree_iterator@V?$_Tree_val@U?$_Tree_simple_types@U?$pair@$$CBV?$basic_string@DU?$char_traits@D@std@@V?$allocator@D@2@@std@@V?$shared_ptr@VJointMimic@urdf@@@2@@std@@@std@@@std@@@0@AEAV10@@Z
	??$forward@V?$allocator@D@std@@@std@@YA$$QEAV?$allocator@D@0@AEAV10@@Z
	??$forward@V?$allocator@U?$_Tree_node@U?$pair@$$CBV?$basic_string@DU?$char_traits@D@std@@V?$allocator@D@2@@std@@V?$shared_ptr@VJointMimic@urdf@@@2@@std@@PEAX@std@@@std@@@std@@YA$$QEAV?$allocator@U?$_Tree_node@U?$pair@$$CBV?$basic_string@DU?$char_traits@D@std@@V?$allocator@D@2@@std@@V?$shared_ptr@VJointMimic@urdf@@@2@@std@@PEAX@std@@@0@AEAV10@@Z
	??$forward@V?$basic_string@DU?$char_traits@D@std@@V?$allocator@D@2@@std@@@std@@YA$$QEAV?$basic_string@DU?$char_traits@D@std@@V?$allocator@D@2@@0@AEAV10@@Z
	??$forward@V?$shared_ptr@$$CBU?$JointState_@V?$allocator@X@std@@@sensor_msgs@@@boost@@@boost@@YA$$QEAV?$shared_ptr@$$CBU?$JointState_@V?$allocator@X@std@@@sensor_msgs@@@0@AEAV10@@Z
	??$forward@V?$shared_ptr@VJointMimic@urdf@@@std@@@std@@YA$$QEAV?$shared_ptr@VJointMimic@urdf@@@0@AEAV10@@Z
	??$forward@V?$tuple@$$V@std@@@std@@YA$$QEAV?$tuple@$$V@0@AEAV10@@Z
	??$forward@V?$tuple@AEBV?$basic_string@DU?$char_traits@D@std@@V?$allocator@D@2@@std@@@std@@@std@@YA$$QEAV?$tuple@AEBV?$basic_string@DU?$char_traits@D@std@@V?$allocator@D@2@@std@@@0@AEAV10@@Z
	??$forward@_N@std@@YA$$QEA_NAEA_N@Z
	??$forward_as_tuple@$$V@std@@YA?AV?$tuple@$$V@0@XZ
	??$forward_as_tuple@AEBV?$basic_string@DU?$char_traits@D@std@@V?$allocator@D@2@@std@@@std@@YA?AV?$tuple@AEBV?$basic_string@DU?$char_traits@D@std@@V?$allocator@D@2@@std@@@0@AEBV?$basic_string@DU?$char_traits@D@std@@V?$allocator@D@2@@0@@Z
	??$get@$0A@AEBV?$basic_string@DU?$char_traits@D@std@@V?$allocator@D@2@@std@@@std@@YAAEBV?$basic_string@DU?$char_traits@D@std@@V?$allocator@D@2@@0@$$QEAV?$tuple@AEBV?$basic_string@DU?$char_traits@D@std@@V?$allocator@D@2@@std@@@0@@Z
	??$get_local_deleter@V?$sp_ms_deleter@U?$JointState_@V?$allocator@X@std@@@sensor_msgs@@@detail@boost@@@detail@boost@@YAPEAV?$sp_ms_deleter@U?$JointState_@V?$allocator@X@std@@@sensor_msgs@@@01@PEAV201@@Z
	??$get_local_deleter@V?$sp_ms_deleter@V?$SubscriptionCallbackHelperT@AEBV?$shared_ptr@$$CBU?$JointState_@V?$allocator@X@std@@@sensor_msgs@@@boost@@X@ros@@@detail@boost@@@detail@boost@@YAPEAV?$sp_ms_deleter@V?$SubscriptionCallbackHelperT@AEBV?$shared_ptr@$$CBU?$JointState_@V?$allocator@X@std@@@sensor_msgs@@@boost@@X@ros@@@01@PEAV201@@Z
	??$hasHeader@U?$JointState_@V?$allocator@X@std@@@sensor_msgs@@@message_traits@ros@@YA_NXZ
	??$init@U?$JointState_@V?$allocator@X@std@@@sensor_msgs@@@SubscribeOptions@ros@@QEAAXAEBV?$basic_string@DU?$char_traits@D@std@@V?$allocator@D@2@@std@@IAEBV?$function@$$A6AXAEBV?$shared_ptr@$$CBU?$JointState_@V?$allocator@X@std@@@sensor_msgs@@@boost@@@Z@boost@@AEBV?$function@$$A6A?AV?$shared_ptr@U?$JointState_@V?$allocator@X@std@@@sensor_msgs@@@boost@@XZ@5@@Z
	??$insert@U?$pair@V?$basic_string@DU?$char_traits@D@std@@V?$allocator@D@2@@std@@N@std@@X@?$map@V?$basic_string@DU?$char_traits@D@std@@V?$allocator@D@2@@std@@NU?$less@V?$basic_string@DU?$char_traits@D@std@@V?$allocator@D@2@@std@@@2@V?$allocator@U?$pair@$$CBV?$basic_string@DU?$char_traits@D@std@@V?$allocator@D@2@@std@@N@std@@@2@@std@@QEAA?AU?$pair@V?$_Tree_iterator@V?$_Tree_val@U?$_Tree_simple_types@U?$pair@$$CBV?$basic_string@DU?$char_traits@D@std@@V?$allocator@D@2@@std@@N@std@@@std@@@std@@@std@@_N@1@$$QEAU?$pair@V?$basic_string@DU?$char_traits@D@std@@V?$allocator@D@2@@std@@N@1@@Z
	??$insert@U?$pair@V?$basic_string@DU?$char_traits@D@std@@V?$allocator@D@2@@std@@V?$shared_ptr@VJointMimic@urdf@@@2@@std@@X@?$map@V?$basic_string@DU?$char_traits@D@std@@V?$allocator@D@2@@std@@V?$shared_ptr@VJointMimic@urdf@@@2@U?$less@V?$basic_string@DU?$char_traits@D@std@@V?$allocator@D@2@@std@@@2@V?$allocator@U?$pair@$$CBV?$basic_string@DU?$char_traits@D@std@@V?$allocator@D@2@@std@@V?$shared_ptr@VJointMimic@urdf@@@2@@std@@@2@@std@@QEAA?AU?$pair@V?$_Tree_iterator@V?$_Tree_val@U?$_Tree_simple_types@U?$pair@$$CBV?$basic_string@DU?$char_traits@D@std@@V?$allocator@D@2@@std@@V?$shared_ptr@VJointMimic@urdf@@@2@@std@@@std@@@std@@@std@@_N@1@$$QEAU?$pair@V?$basic_string@DU?$char_traits@D@std@@V?$allocator@D@2@@std@@V?$shared_ptr@VJointMimic@urdf@@@2@@1@@Z
	??$make_pair@AEBV?$basic_string@DU?$char_traits@D@std@@V?$allocator@D@2@@std@@AEAN@std@@YA?AU?$pair@V?$basic_string@DU?$char_traits@D@std@@V?$allocator@D@2@@std@@N@0@AEBV?$basic_string@DU?$char_traits@D@std@@V?$allocator@D@2@@0@AEAN@Z
	??$make_pair@AEBV?$basic_string@DU?$char_traits@D@std@@V?$allocator@D@2@@std@@AEAV?$shared_ptr@VJointMimic@urdf@@@2@@std@@YA?AU?$pair@V?$basic_string@DU?$char_traits@D@std@@V?$allocator@D@2@@std@@V?$shared_ptr@VJointMimic@urdf@@@2@@0@AEBV?$basic_string@DU?$char_traits@D@std@@V?$allocator@D@2@@0@AEAV?$shared_ptr@VJointMimic@urdf@@@0@@Z
	??$make_pair@AEBV?$basic_string@DU?$char_traits@D@std@@V?$allocator@D@2@@std@@AEBN@std@@YA?AU?$pair@V?$basic_string@DU?$char_traits@D@std@@V?$allocator@D@2@@std@@N@0@AEBV?$basic_string@DU?$char_traits@D@std@@V?$allocator@D@2@@0@AEBN@Z
	??$make_shared@U?$JointState_@V?$allocator@X@std@@@sensor_msgs@@$$V@boost@@YA?AV?$shared_ptr@U?$JointState_@V?$allocator@X@std@@@sensor_msgs@@@0@XZ
	??$make_shared@V?$SubscriptionCallbackHelperT@AEBV?$shared_ptr@$$CBU?$JointState_@V?$allocator@X@std@@@sensor_msgs@@@boost@@X@ros@@AEBV?$function@$$A6AXAEBV?$shared_ptr@$$CBU?$JointState_@V?$allocator@X@std@@@sensor_msgs@@@boost@@@Z@boost@@AEBV?$function@$$A6A?AV?$shared_ptr@U?$JointState_@V?$allocator@X@std@@@sensor_msgs@@@boost@@XZ@4@@boost@@YA?AV?$shared_ptr@V?$SubscriptionCallbackHelperT@AEBV?$shared_ptr@$$CBU?$JointState_@V?$allocator@X@std@@@sensor_msgs@@@boost@@X@ros@@@0@AEBV?$function@$$A6AXAEBV?$shared_ptr@$$CBU?$JointState_@V?$allocator@X@std@@@sensor_msgs@@@boost@@@Z@0@AEBV?$function@$$A6A?AV?$shared_ptr@U?$JointState_@V?$allocator@X@std@@@sensor_msgs@@@boost@@XZ@0@@Z
	??$md5sum@U?$JointState_@V?$allocator@X@std@@@sensor_msgs@@@message_traits@ros@@YAPEBDXZ
	??$move@AEAPEAU?$JointState_@V?$allocator@X@std@@@sensor_msgs@@@std@@YA$$QEAPEAU?$JointState_@V?$allocator@X@std@@@sensor_msgs@@AEAPEAU12@@Z
	??$move@AEAPEAV?$map@V?$basic_string@DU?$char_traits@D@std@@V?$allocator@D@2@@std@@V12@U?$less@V?$basic_string@DU?$char_traits@D@std@@V?$allocator@D@2@@std@@@2@V?$allocator@U?$pair@$$CBV?$basic_string@DU?$char_traits@D@std@@V?$allocator@D@2@@std@@V12@@std@@@2@@std@@@std@@YA$$QEAPEAV?$map@V?$basic_string@DU?$char_traits@D@std@@V?$allocator@D@2@@std@@V12@U?$less@V?$basic_string@DU?$char_traits@D@std@@V?$allocator@D@2@@std@@@2@V?$allocator@U?$pair@$$CBV?$basic_string@DU?$char_traits@D@std@@V?$allocator@D@2@@std@@V12@@std@@@2@@0@AEAPEAV10@@Z
	??$move@AEAPEAVSubscriptionCallbackHelper@ros@@@std@@YA$$QEAPEAVSubscriptionCallbackHelper@ros@@AEAPEAV12@@Z
	??$move@AEAPEBU?$JointState_@V?$allocator@X@std@@@sensor_msgs@@@std@@YA$$QEAPEBU?$JointState_@V?$allocator@X@std@@@sensor_msgs@@AEAPEBU12@@Z
	??$move@AEAV?$allocator@D@std@@@std@@YA$$QEAV?$allocator@D@0@AEAV10@@Z
	??$move@AEAV?$basic_string@DU?$char_traits@D@std@@V?$allocator@D@2@@std@@@std@@YA$$QEAV?$basic_string@DU?$char_traits@D@std@@V?$allocator@D@2@@0@AEAV10@@Z
	??$move@AEAV?$shared_ptr@$$CBU?$JointState_@V?$allocator@X@std@@@sensor_msgs@@@boost@@@std@@YA$$QEAV?$shared_ptr@$$CBU?$JointState_@V?$allocator@X@std@@@sensor_msgs@@@boost@@AEAV12@@Z
	??$move@AEAV?$shared_ptr@$$CBX@boost@@@std@@YA$$QEAV?$shared_ptr@$$CBX@boost@@AEAV12@@Z
	??$move@AEAV?$shared_ptr@VJointMimic@urdf@@@std@@@std@@YA$$QEAV?$shared_ptr@VJointMimic@urdf@@@0@AEAV10@@Z
	??$move@AEAV?$tuple@AEBV?$basic_string@DU?$char_traits@D@std@@V?$allocator@D@2@@std@@@std@@@std@@YA$$QEAV?$tuple@AEBV?$basic_string@DU?$char_traits@D@std@@V?$allocator@D@2@@std@@@0@AEAV10@@Z
	??$next@I@IStream@serialization@ros@@QEAAXAEAI@Z
	??$next@PEAV?$basic_string@DU?$char_traits@D@std@@V?$allocator@D@2@@std@@@std@@YAPEAV?$basic_string@DU?$char_traits@D@std@@V?$allocator@D@2@@0@PEAV10@_J@Z
	??$next@U?$Header_@V?$allocator@X@std@@@std_msgs@@@IStream@serialization@ros@@QEAAXAEAU?$Header_@V?$allocator@X@std@@@std_msgs@@@Z
	??$next@V?$basic_string@DU?$char_traits@D@std@@V?$allocator@D@2@@std@@@IStream@serialization@ros@@QEAAXAEAV?$basic_string@DU?$char_traits@D@std@@V?$allocator@D@2@@std@@@Z
	??$next@V?$vector@NV?$allocator@N@std@@@std@@@IStream@serialization@ros@@QEAAXAEAV?$vector@NV?$allocator@N@std@@@std@@@Z
	??$next@V?$vector@V?$basic_string@DU?$char_traits@D@std@@V?$allocator@D@2@@std@@V?$allocator@V?$basic_string@DU?$char_traits@D@std@@V?$allocator@D@2@@std@@@2@@std@@@IStream@serialization@ros@@QEAAXAEAV?$vector@V?$basic_string@DU?$char_traits@D@std@@V?$allocator@D@2@@std@@V?$allocator@V?$basic_string@DU?$char_traits@D@std@@V?$allocator@D@2@@std@@@2@@std@@@Z
	??$next@VTime@ros@@@IStream@serialization@ros@@QEAAXAEAVTime@2@@Z
	??$param@N@NodeHandle@ros@@QEBA_NAEBV?$basic_string@DU?$char_traits@D@std@@V?$allocator@D@2@@std@@AEANAEBN@Z
	??$param@V?$basic_string@DU?$char_traits@D@std@@V?$allocator@D@2@@std@@@NodeHandle@ros@@QEBA_NAEBV?$basic_string@DU?$char_traits@D@std@@V?$allocator@D@2@@std@@AEAV23@0@Z
	??$param@_N@NodeHandle@ros@@QEBA_NAEBV?$basic_string@DU?$char_traits@D@std@@V?$allocator@D@2@@std@@AEA_NAEB_N@Z
	??$read@UIStream@serialization@ros@@@?$Serializer@I@serialization@ros@@SAXAEAUIStream@12@AEAI@Z
	??$read@UIStream@serialization@ros@@@?$Serializer@V?$basic_string@DU?$char_traits@D@std@@V?$allocator@D@2@@std@@@serialization@ros@@SAXAEAUIStream@12@AEAV?$basic_string@DU?$char_traits@D@std@@V?$allocator@D@2@@std@@@Z
	??$read@UIStream@serialization@ros@@@?$Serializer@VTime@ros@@@serialization@ros@@SAXAEAUIStream@12@AEAVTime@2@@Z
	??$read@UIStream@serialization@ros@@@?$VectorSerializer@NV?$allocator@N@std@@X@serialization@ros@@SAXAEAUIStream@12@AEAV?$vector@NV?$allocator@N@std@@@std@@@Z
	??$read@UIStream@serialization@ros@@@?$VectorSerializer@V?$basic_string@DU?$char_traits@D@std@@V?$allocator@D@2@@std@@V?$allocator@V?$basic_string@DU?$char_traits@D@std@@V?$allocator@D@2@@std@@@2@X@serialization@ros@@SAXAEAUIStream@12@AEAV?$vector@V?$basic_string@DU?$char_traits@D@std@@V?$allocator@D@2@@std@@V?$allocator@V?$basic_string@DU?$char_traits@D@std@@V?$allocator@D@2@@std@@@2@@std@@@Z
	??$read@UIStream@serialization@ros@@U?$Header_@V?$allocator@X@std@@@std_msgs@@@?$Serializer@U?$Header_@V?$allocator@X@std@@@std_msgs@@@serialization@ros@@SAXAEAUIStream@12@AEAU?$Header_@V?$allocator@X@std@@@std_msgs@@@Z
	??$read@UIStream@serialization@ros@@U?$JointState_@V?$allocator@X@std@@@sensor_msgs@@@?$Serializer@U?$JointState_@V?$allocator@X@std@@@sensor_msgs@@@serialization@ros@@SAXAEAUIStream@12@AEAU?$JointState_@V?$allocator@X@std@@@sensor_msgs@@@Z
	??$sp_assert_convertible@U?$JointState_@V?$allocator@X@std@@@sensor_msgs@@$$CBU12@@detail@boost@@YAXXZ
	??$sp_assert_convertible@U?$JointState_@V?$allocator@X@std@@@sensor_msgs@@$$CBX@detail@boost@@YAXXZ
	??$sp_assert_convertible@V?$SubscriptionCallbackHelperT@AEBV?$shared_ptr@$$CBU?$JointState_@V?$allocator@X@std@@@sensor_msgs@@@boost@@X@ros@@VSubscriptionCallbackHelper@2@@detail@boost@@YAXXZ
	??$sp_assert_convertible@X$$CBX@detail@boost@@YAXXZ
	??$sp_deleter_construct@U?$JointState_@V?$allocator@X@std@@@sensor_msgs@@U12@@detail@boost@@YAXPEAV?$shared_ptr@U?$JointState_@V?$allocator@X@std@@@sensor_msgs@@@1@PEAU?$JointState_@V?$allocator@X@std@@@sensor_msgs@@@Z
	??$sp_deleter_construct@V?$SubscriptionCallbackHelperT@AEBV?$shared_ptr@$$CBU?$JointState_@V?$allocator@X@std@@@sensor_msgs@@@boost@@X@ros@@V12@@detail@boost@@YAXPEAV?$shared_ptr@V?$SubscriptionCallbackHelperT@AEBV?$shared_ptr@$$CBU?$JointState_@V?$allocator@X@std@@@sensor_msgs@@@boost@@X@ros@@@1@PEAV?$SubscriptionCallbackHelperT@AEBV?$shared_ptr@$$CBU?$JointState_@V?$allocator@X@std@@@sensor_msgs@@@boost@@X@ros@@@Z
	??$sp_forward@AEBV?$function@$$A6A?AV?$shared_ptr@U?$JointState_@V?$allocator@X@std@@@sensor_msgs@@@boost@@XZ@boost@@@detail@boost@@YAAEBV?$function@$$A6A?AV?$shared_ptr@U?$JointState_@V?$allocator@X@std@@@sensor_msgs@@@boost@@XZ@1@AEBV21@@Z
	??$sp_forward@AEBV?$function@$$A6AXAEBV?$shared_ptr@$$CBU?$JointState_@V?$allocator@X@std@@@sensor_msgs@@@boost@@@Z@boost@@@detail@boost@@YAAEBV?$function@$$A6AXAEBV?$shared_ptr@$$CBU?$JointState_@V?$allocator@X@std@@@sensor_msgs@@@boost@@@Z@1@AEBV21@@Z
	??$static_pointer_cast@$$CBU?$JointState_@V?$allocator@X@std@@@sensor_msgs@@$$CBX@boost@@YA?AV?$shared_ptr@$$CBU?$JointState_@V?$allocator@X@std@@@sensor_msgs@@@0@$$QEAV?$shared_ptr@$$CBX@0@@Z
	??$subscribe@U?$JointState_@V?$allocator@X@std@@@sensor_msgs@@VJointStateListener@robot_state_publisher@@@NodeHandle@ros@@QEAA?AVSubscriber@1@AEBV?$basic_string@DU?$char_traits@D@std@@V?$allocator@D@2@@std@@IP8JointStateListener@robot_state_publisher@@EAAXAEBV?$shared_ptr@$$CBU?$JointState_@V?$allocator@X@std@@@sensor_msgs@@@boost@@@ZPEAV56@AEBVTransportHints@1@@Z
	??$swap@PEAU?$JointState_@V?$allocator@X@std@@@sensor_msgs@@X@std@@YAXAEAPEAU?$JointState_@V?$allocator@X@std@@@sensor_msgs@@0@Z
	??$swap@PEAV?$map@V?$basic_string@DU?$char_traits@D@std@@V?$allocator@D@2@@std@@V12@U?$less@V?$basic_string@DU?$char_traits@D@std@@V?$allocator@D@2@@std@@@2@V?$allocator@U?$pair@$$CBV?$basic_string@DU?$char_traits@D@std@@V?$allocator@D@2@@std@@V12@@std@@@2@@std@@X@std@@YAXAEAPEAV?$map@V?$basic_string@DU?$char_traits@D@std@@V?$allocator@D@2@@std@@V12@U?$less@V?$basic_string@DU?$char_traits@D@std@@V?$allocator@D@2@@std@@@2@V?$allocator@U?$pair@$$CBV?$basic_string@DU?$char_traits@D@std@@V?$allocator@D@2@@std@@V12@@std@@@2@@0@0@Z
	??$swap@PEAVSubscriptionCallbackHelper@ros@@X@std@@YAXAEAPEAVSubscriptionCallbackHelper@ros@@0@Z
	??$swap@PEBU?$JointState_@V?$allocator@X@std@@@sensor_msgs@@X@std@@YAXAEAPEBU?$JointState_@V?$allocator@X@std@@@sensor_msgs@@0@Z
	??$throw_exception@Vbad_function_call@boost@@@boost@@YAXAEBVbad_function_call@0@@Z
	??$type_id@U?$DefaultMessageCreator@U?$JointState_@V?$allocator@X@std@@@sensor_msgs@@@ros@@@stl_type_index@typeindex@boost@@SA?AV012@XZ
	??$type_id@U?$DefaultMessageCreator@U?$JointState_@V?$allocator@X@std@@@sensor_msgs@@@ros@@@typeindex@boost@@YA?AVstl_type_index@01@XZ
	??$type_id@V?$bind_t@XV?$mf1@XVJointStateListener@robot_state_publisher@@AEBUTimerEvent@ros@@@_mfi@boost@@V?$list2@V?$value@PEAVJointStateListener@robot_state_publisher@@@_bi@boost@@U?$arg@$00@3@@_bi@3@@_bi@boost@@@stl_type_index@typeindex@boost@@SA?AV012@XZ
	??$type_id@V?$bind_t@XV?$mf1@XVJointStateListener@robot_state_publisher@@AEBUTimerEvent@ros@@@_mfi@boost@@V?$list2@V?$value@PEAVJointStateListener@robot_state_publisher@@@_bi@boost@@U?$arg@$00@3@@_bi@3@@_bi@boost@@@typeindex@boost@@YA?AVstl_type_index@01@XZ
	??$type_id@V?$bind_t@XV?$mf1@XVJointStateListener@robot_state_publisher@@AEBV?$shared_ptr@$$CBU?$JointState_@V?$allocator@X@std@@@sensor_msgs@@@boost@@@_mfi@boost@@V?$list2@V?$value@PEAVJointStateListener@robot_state_publisher@@@_bi@boost@@U?$arg@$00@3@@_bi@3@@_bi@boost@@@stl_type_index@typeindex@boost@@SA?AV012@XZ
	??$type_id@V?$bind_t@XV?$mf1@XVJointStateListener@robot_state_publisher@@AEBV?$shared_ptr@$$CBU?$JointState_@V?$allocator@X@std@@@sensor_msgs@@@boost@@@_mfi@boost@@V?$list2@V?$value@PEAVJointStateListener@robot_state_publisher@@@_bi@boost@@U?$arg@$00@3@@_bi@3@@_bi@boost@@@typeindex@boost@@YA?AVstl_type_index@01@XZ
	??$type_id@V?$function@$$A6AXAEBV?$shared_ptr@$$CBU?$JointState_@V?$allocator@X@std@@@sensor_msgs@@@boost@@@Z@boost@@@stl_type_index@typeindex@boost@@SA?AV012@XZ
	??$type_id@V?$function@$$A6AXAEBV?$shared_ptr@$$CBU?$JointState_@V?$allocator@X@std@@@sensor_msgs@@@boost@@@Z@boost@@@typeindex@boost@@YA?AVstl_type_index@01@XZ
	??0?$Header_@V?$allocator@X@std@@@std_msgs@@QEAA@XZ
	??0?$JointState_@V?$allocator@X@std@@@sensor_msgs@@QEAA@XZ
	??0?$MessageEvent@$$CBU?$JointState_@V?$allocator@X@std@@@sensor_msgs@@@ros@@QEAA@AEBV?$MessageEvent@$$CBX@1@AEBV?$function@$$A6A?AV?$shared_ptr@U?$JointState_@V?$allocator@X@std@@@sensor_msgs@@@boost@@XZ@boost@@@Z
	??0?$PreDeserializeParams@U?$JointState_@V?$allocator@X@std@@@sensor_msgs@@@serialization@ros@@QEAA@XZ
	??0?$SubscriptionCallbackHelperT@AEBV?$shared_ptr@$$CBU?$JointState_@V?$allocator@X@std@@@sensor_msgs@@@boost@@X@ros@@QEAA@AEBV?$function@$$A6AXV?$shared_ptr@$$CBU?$JointState_@V?$allocator@X@std@@@sensor_msgs@@@boost@@@Z@boost@@AEBV?$function@$$A6A?AV?$shared_ptr@U?$JointState_@V?$allocator@X@std@@@sensor_msgs@@@boost@@XZ@3@@Z
	??0?$_Alloc_construct_ptr@V?$allocator@U?$_Tree_node@U?$pair@$$CBV?$basic_string@DU?$char_traits@D@std@@V?$allocator@D@2@@std@@N@std@@PEAX@std@@@std@@@std@@QEAA@AEAV?$allocator@U?$_Tree_node@U?$pair@$$CBV?$basic_string@DU?$char_traits@D@std@@V?$allocator@D@2@@std@@N@std@@PEAX@std@@@1@@Z
	??0?$_Alloc_construct_ptr@V?$allocator@U?$_Tree_node@U?$pair@$$CBV?$basic_string@DU?$char_traits@D@std@@V?$allocator@D@2@@std@@V?$shared_ptr@VJointMimic@urdf@@@2@@std@@PEAX@std@@@std@@@std@@QEAA@AEAV?$allocator@U?$_Tree_node@U?$pair@$$CBV?$basic_string@DU?$char_traits@D@std@@V?$allocator@D@2@@std@@V?$shared_ptr@VJointMimic@urdf@@@2@@std@@PEAX@std@@@1@@Z
	??0?$_Alloc_construct_ptr@V?$allocator@U?$_Tree_node@U?$pair@$$CBV?$basic_string@DU?$char_traits@D@std@@V?$allocator@D@2@@std@@VTime@ros@@@std@@PEAX@std@@@std@@@std@@QEAA@AEAV?$allocator@U?$_Tree_node@U?$pair@$$CBV?$basic_string@DU?$char_traits@D@std@@V?$allocator@D@2@@std@@VTime@ros@@@std@@PEAX@std@@@1@@Z
	??0?$_Atomic_integral@H$03@std@@QEAA@H@Z
	??0?$_Atomic_integral_facade@H@std@@QEAA@H@Z
	??0?$_Atomic_storage@H$03@std@@QEAA@H@Z
	??0?$_Ptr_base@VJointMimic@urdf@@@std@@IEAA@XZ
	??0?$_Ptr_base@VLink@urdf@@@std@@IEAA@XZ
	??0?$_String_bitmap@D$00@std@@QEAA@XZ
	??0?$_String_val@U?$_Simple_types@D@std@@@std@@QEAA@XZ
	??0?$_Tree@V?$_Tmap_traits@V?$basic_string@DU?$char_traits@D@std@@V?$allocator@D@2@@std@@NU?$less@V?$basic_string@DU?$char_traits@D@std@@V?$allocator@D@2@@std@@@2@V?$allocator@U?$pair@$$CBV?$basic_string@DU?$char_traits@D@std@@V?$allocator@D@2@@std@@N@std@@@2@$0A@@std@@@std@@QEAA@AEBU?$less@V?$basic_string@DU?$char_traits@D@std@@V?$allocator@D@2@@std@@@1@@Z
	??0?$_Tree@V?$_Tmap_traits@V?$basic_string@DU?$char_traits@D@std@@V?$allocator@D@2@@std@@V12@U?$less@V?$basic_string@DU?$char_traits@D@std@@V?$allocator@D@2@@std@@@2@V?$allocator@U?$pair@$$CBV?$basic_string@DU?$char_traits@D@std@@V?$allocator@D@2@@std@@V12@@std@@@2@$0A@@std@@@std@@QEAA@AEBU?$less@V?$basic_string@DU?$char_traits@D@std@@V?$allocator@D@2@@std@@@1@@Z
	??0?$_Tree@V?$_Tmap_traits@V?$basic_string@DU?$char_traits@D@std@@V?$allocator@D@2@@std@@V?$shared_ptr@VJoint@urdf@@@2@U?$less@V?$basic_string@DU?$char_traits@D@std@@V?$allocator@D@2@@std@@@2@V?$allocator@U?$pair@$$CBV?$basic_string@DU?$char_traits@D@std@@V?$allocator@D@2@@std@@V?$shared_ptr@VJoint@urdf@@@2@@std@@@2@$0A@@std@@@std@@QEAA@AEBU?$less@V?$basic_string@DU?$char_traits@D@std@@V?$allocator@D@2@@std@@@1@@Z
	??0?$_Tree@V?$_Tmap_traits@V?$basic_string@DU?$char_traits@D@std@@V?$allocator@D@2@@std@@V?$shared_ptr@VJointMimic@urdf@@@2@U?$less@V?$basic_string@DU?$char_traits@D@std@@V?$allocator@D@2@@std@@@2@V?$allocator@U?$pair@$$CBV?$basic_string@DU?$char_traits@D@std@@V?$allocator@D@2@@std@@V?$shared_ptr@VJointMimic@urdf@@@2@@std@@@2@$0A@@std@@@std@@QEAA@AEBU?$less@V?$basic_string@DU?$char_traits@D@std@@V?$allocator@D@2@@std@@@1@@Z
	??0?$_Tree@V?$_Tmap_traits@V?$basic_string@DU?$char_traits@D@std@@V?$allocator@D@2@@std@@V?$shared_ptr@VLink@urdf@@@2@U?$less@V?$basic_string@DU?$char_traits@D@std@@V?$allocator@D@2@@std@@@2@V?$allocator@U?$pair@$$CBV?$basic_string@DU?$char_traits@D@std@@V?$allocator@D@2@@std@@V?$shared_ptr@VLink@urdf@@@2@@std@@@2@$0A@@std@@@std@@QEAA@AEBU?$less@V?$basic_string@DU?$char_traits@D@std@@V?$allocator@D@2@@std@@@1@@Z
	??0?$_Tree@V?$_Tmap_traits@V?$basic_string@DU?$char_traits@D@std@@V?$allocator@D@2@@std@@V?$shared_ptr@VMaterial@urdf@@@2@U?$less@V?$basic_string@DU?$char_traits@D@std@@V?$allocator@D@2@@std@@@2@V?$allocator@U?$pair@$$CBV?$basic_string@DU?$char_traits@D@std@@V?$allocator@D@2@@std@@V?$shared_ptr@VMaterial@urdf@@@2@@std@@@2@$0A@@std@@@std@@QEAA@AEBU?$less@V?$basic_string@DU?$char_traits@D@std@@V?$allocator@D@2@@std@@@1@@Z
	??0?$_Tree@V?$_Tmap_traits@V?$basic_string@DU?$char_traits@D@std@@V?$allocator@D@2@@std@@VTime@ros@@U?$less@V?$basic_string@DU?$char_traits@D@std@@V?$allocator@D@2@@std@@@2@V?$allocator@U?$pair@$$CBV?$basic_string@DU?$char_traits@D@std@@V?$allocator@D@2@@std@@VTime@ros@@@std@@@2@$0A@@std@@@std@@QEAA@AEBU?$less@V?$basic_string@DU?$char_traits@D@std@@V?$allocator@D@2@@std@@@1@@Z
	??0?$_Tree_const_iterator@V?$_Tree_val@U?$_Tree_simple_types@U?$pair@$$CBV?$basic_string@DU?$char_traits@D@std@@V?$allocator@D@2@@std@@N@std@@@std@@@std@@@std@@QEAA@PEAU?$_Tree_node@U?$pair@$$CBV?$basic_string@DU?$char_traits@D@std@@V?$allocator@D@2@@std@@N@std@@PEAX@1@PEBV?$_Tree_val@U?$_Tree_simple_types@U?$pair@$$CBV?$basic_string@DU?$char_traits@D@std@@V?$allocator@D@2@@std@@N@std@@@std@@@1@@Z
	??0?$_Tree_const_iterator@V?$_Tree_val@U?$_Tree_simple_types@U?$pair@$$CBV?$basic_string@DU?$char_traits@D@std@@V?$allocator@D@2@@std@@V?$shared_ptr@VJoint@urdf@@@2@@std@@@std@@@std@@@std@@QEAA@PEAU?$_Tree_node@U?$pair@$$CBV?$basic_string@DU?$char_traits@D@std@@V?$allocator@D@2@@std@@V?$shared_ptr@VJoint@urdf@@@2@@std@@PEAX@1@PEBV?$_Tree_val@U?$_Tree_simple_types@U?$pair@$$CBV?$basic_string@DU?$char_traits@D@std@@V?$allocator@D@2@@std@@V?$shared_ptr@VJoint@urdf@@@2@@std@@@std@@@1@@Z
	??0?$_Tree_const_iterator@V?$_Tree_val@U?$_Tree_simple_types@U?$pair@$$CBV?$basic_string@DU?$char_traits@D@std@@V?$allocator@D@2@@std@@V?$shared_ptr@VJointMimic@urdf@@@2@@std@@@std@@@std@@@std@@QEAA@PEAU?$_Tree_node@U?$pair@$$CBV?$basic_string@DU?$char_traits@D@std@@V?$allocator@D@2@@std@@V?$shared_ptr@VJointMimic@urdf@@@2@@std@@PEAX@1@PEBV?$_Tree_val@U?$_Tree_simple_types@U?$pair@$$CBV?$basic_string@DU?$char_traits@D@std@@V?$allocator@D@2@@std@@V?$shared_ptr@VJointMimic@urdf@@@2@@std@@@std@@@1@@Z
	??0?$_Tree_head_scoped_ptr@V?$allocator@U?$_Tree_node@U?$pair@$$CBV?$basic_string@DU?$char_traits@D@std@@V?$allocator@D@2@@std@@V?$shared_ptr@VJointMimic@urdf@@@2@@std@@PEAX@std@@@std@@V?$_Tree_val@U?$_Tree_simple_types@U?$pair@$$CBV?$basic_string@DU?$char_traits@D@std@@V?$allocator@D@2@@std@@V?$shared_ptr@VJointMimic@urdf@@@2@@std@@@std@@@2@@std@@QEAA@AEAV?$allocator@U?$_Tree_node@U?$pair@$$CBV?$basic_string@DU?$char_traits@D@std@@V?$allocator@D@2@@std@@V?$shared_ptr@VJointMimic@urdf@@@2@@std@@PEAX@std@@@1@AEAV?$_Tree_val@U?$_Tree_simple_types@U?$pair@$$CBV?$basic_string@DU?$char_traits@D@std@@V?$allocator@D@2@@std@@V?$shared_ptr@VJointMimic@urdf@@@2@@std@@@std@@@1@@Z
	??0?$_Tree_iterator@V?$_Tree_val@U?$_Tree_simple_types@U?$pair@$$CBV?$basic_string@DU?$char_traits@D@std@@V?$allocator@D@2@@std@@N@std@@@std@@@std@@@std@@QEAA@PEAU?$_Tree_node@U?$pair@$$CBV?$basic_string@DU?$char_traits@D@std@@V?$allocator@D@2@@std@@N@std@@PEAX@1@PEBV?$_Tree_val@U?$_Tree_simple_types@U?$pair@$$CBV?$basic_string@DU?$char_traits@D@std@@V?$allocator@D@2@@std@@N@std@@@std@@@1@@Z
	??0?$_Tree_iterator@V?$_Tree_val@U?$_Tree_simple_types@U?$pair@$$CBV?$basic_string@DU?$char_traits@D@std@@V?$allocator@D@2@@std@@V?$shared_ptr@VJoint@urdf@@@2@@std@@@std@@@std@@@std@@QEAA@PEAU?$_Tree_node@U?$pair@$$CBV?$basic_string@DU?$char_traits@D@std@@V?$allocator@D@2@@std@@V?$shared_ptr@VJoint@urdf@@@2@@std@@PEAX@1@PEBV?$_Tree_val@U?$_Tree_simple_types@U?$pair@$$CBV?$basic_string@DU?$char_traits@D@std@@V?$allocator@D@2@@std@@V?$shared_ptr@VJoint@urdf@@@2@@std@@@std@@@1@@Z
	??0?$_Tree_iterator@V?$_Tree_val@U?$_Tree_simple_types@U?$pair@$$CBV?$basic_string@DU?$char_traits@D@std@@V?$allocator@D@2@@std@@V?$shared_ptr@VJointMimic@urdf@@@2@@std@@@std@@@std@@@std@@QEAA@PEAU?$_Tree_node@U?$pair@$$CBV?$basic_string@DU?$char_traits@D@std@@V?$allocator@D@2@@std@@V?$shared_ptr@VJointMimic@urdf@@@2@@std@@PEAX@1@PEBV?$_Tree_val@U?$_Tree_simple_types@U?$pair@$$CBV?$basic_string@DU?$char_traits@D@std@@V?$allocator@D@2@@std@@V?$shared_ptr@VJointMimic@urdf@@@2@@std@@@std@@@1@@Z
	??0?$_Tree_temp_node_alloc@V?$allocator@U?$_Tree_node@U?$pair@$$CBV?$basic_string@DU?$char_traits@D@std@@V?$allocator@D@2@@std@@N@std@@PEAX@std@@@std@@@std@@QEAA@AEAV?$allocator@U?$_Tree_node@U?$pair@$$CBV?$basic_string@DU?$char_traits@D@std@@V?$allocator@D@2@@std@@N@std@@PEAX@std@@@1@@Z
	??0?$_Tree_temp_node_alloc@V?$allocator@U?$_Tree_node@U?$pair@$$CBV?$basic_string@DU?$char_traits@D@std@@V?$allocator@D@2@@std@@V?$shared_ptr@VJointMimic@urdf@@@2@@std@@PEAX@std@@@std@@@std@@QEAA@AEAV?$allocator@U?$_Tree_node@U?$pair@$$CBV?$basic_string@DU?$char_traits@D@std@@V?$allocator@D@2@@std@@V?$shared_ptr@VJointMimic@urdf@@@2@@std@@PEAX@std@@@1@@Z
	??0?$_Tree_temp_node_alloc@V?$allocator@U?$_Tree_node@U?$pair@$$CBV?$basic_string@DU?$char_traits@D@std@@V?$allocator@D@2@@std@@VTime@ros@@@std@@PEAX@std@@@std@@@std@@QEAA@AEAV?$allocator@U?$_Tree_node@U?$pair@$$CBV?$basic_string@DU?$char_traits@D@std@@V?$allocator@D@2@@std@@VTime@ros@@@std@@PEAX@std@@@1@@Z
	??0?$_Tree_unchecked_const_iterator@V?$_Tree_val@U?$_Tree_simple_types@U?$pair@$$CBV?$basic_string@DU?$char_traits@D@std@@V?$allocator@D@2@@std@@N@std@@@std@@@std@@U_Iterator_base0@2@@std@@QEAA@PEAU?$_Tree_node@U?$pair@$$CBV?$basic_string@DU?$char_traits@D@std@@V?$allocator@D@2@@std@@N@std@@PEAX@1@PEBV?$_Tree_val@U?$_Tree_simple_types@U?$pair@$$CBV?$basic_string@DU?$char_traits@D@std@@V?$allocator@D@2@@std@@N@std@@@std@@@1@@Z
	??0?$_Tree_unchecked_const_iterator@V?$_Tree_val@U?$_Tree_simple_types@U?$pair@$$CBV?$basic_string@DU?$char_traits@D@std@@V?$allocator@D@2@@std@@V?$shared_ptr@VJoint@urdf@@@2@@std@@@std@@@std@@U_Iterator_base0@2@@std@@QEAA@PEAU?$_Tree_node@U?$pair@$$CBV?$basic_string@DU?$char_traits@D@std@@V?$allocator@D@2@@std@@V?$shared_ptr@VJoint@urdf@@@2@@std@@PEAX@1@PEBV?$_Tree_val@U?$_Tree_simple_types@U?$pair@$$CBV?$basic_string@DU?$char_traits@D@std@@V?$allocator@D@2@@std@@V?$shared_ptr@VJoint@urdf@@@2@@std@@@std@@@1@@Z
	??0?$_Tree_unchecked_const_iterator@V?$_Tree_val@U?$_Tree_simple_types@U?$pair@$$CBV?$basic_string@DU?$char_traits@D@std@@V?$allocator@D@2@@std@@V?$shared_ptr@VJointMimic@urdf@@@2@@std@@@std@@@std@@U_Iterator_base0@2@@std@@QEAA@PEAU?$_Tree_node@U?$pair@$$CBV?$basic_string@DU?$char_traits@D@std@@V?$allocator@D@2@@std@@V?$shared_ptr@VJointMimic@urdf@@@2@@std@@PEAX@1@PEBV?$_Tree_val@U?$_Tree_simple_types@U?$pair@$$CBV?$basic_string@DU?$char_traits@D@std@@V?$allocator@D@2@@std@@V?$shared_ptr@VJointMimic@urdf@@@2@@std@@@std@@@1@@Z
	??0?$_Tree_val@U?$_Tree_simple_types@U?$pair@$$CBV?$basic_string@DU?$char_traits@D@std@@V?$allocator@D@2@@std@@N@std@@@std@@@std@@QEAA@XZ
	??0?$_Tree_val@U?$_Tree_simple_types@U?$pair@$$CBV?$basic_string@DU?$char_traits@D@std@@V?$allocator@D@2@@std@@V12@@std@@@std@@@std@@QEAA@XZ
	??0?$_Tree_val@U?$_Tree_simple_types@U?$pair@$$CBV?$basic_string@DU?$char_traits@D@std@@V?$allocator@D@2@@std@@V?$shared_ptr@VJoint@urdf@@@2@@std@@@std@@@std@@QEAA@XZ
	??0?$_Tree_val@U?$_Tree_simple_types@U?$pair@$$CBV?$basic_string@DU?$char_traits@D@std@@V?$allocator@D@2@@std@@V?$shared_ptr@VJointMimic@urdf@@@2@@std@@@std@@@std@@QEAA@XZ
	??0?$_Tree_val@U?$_Tree_simple_types@U?$pair@$$CBV?$basic_string@DU?$char_traits@D@std@@V?$allocator@D@2@@std@@V?$shared_ptr@VLink@urdf@@@2@@std@@@std@@@std@@QEAA@XZ
	??0?$_Tree_val@U?$_Tree_simple_types@U?$pair@$$CBV?$basic_string@DU?$char_traits@D@std@@V?$allocator@D@2@@std@@V?$shared_ptr@VMaterial@urdf@@@2@@std@@@std@@@std@@QEAA@XZ
	??0?$_Tree_val@U?$_Tree_simple_types@U?$pair@$$CBV?$basic_string@DU?$char_traits@D@std@@V?$allocator@D@2@@std@@VTime@ros@@@std@@@std@@@std@@QEAA@XZ
	??0?$_Uninitialized_backout_al@V?$allocator@V?$basic_string@DU?$char_traits@D@std@@V?$allocator@D@2@@std@@@std@@@std@@QEAA@PEAV?$basic_string@DU?$char_traits@D@std@@V?$allocator@D@2@@1@AEAV?$allocator@V?$basic_string@DU?$char_traits@D@std@@V?$allocator@D@2@@std@@@1@@Z
	??0?$_Vector_const_iterator@V?$_Vector_val@U?$_Simple_types@V?$basic_string@DU?$char_traits@D@std@@V?$allocator@D@2@@std@@@std@@@std@@@std@@QEAA@PEAV?$basic_string@DU?$char_traits@D@std@@V?$allocator@D@2@@1@PEBU_Container_base0@1@@Z
	??0?$_Vector_iterator@V?$_Vector_val@U?$_Simple_types@V?$basic_string@DU?$char_traits@D@std@@V?$allocator@D@2@@std@@@std@@@std@@@std@@QEAA@PEAV?$basic_string@DU?$char_traits@D@std@@V?$allocator@D@2@@1@PEBU_Container_base0@1@@Z
	??0?$_Vector_val@U?$_Simple_types@N@std@@@std@@QEAA@XZ
	??0?$_Vector_val@U?$_Simple_types@V?$basic_string@DU?$char_traits@D@std@@V?$allocator@D@2@@std@@@std@@@std@@QEAA@XZ
	??0?$allocator@D@std@@QEAA@XZ
	??0?$allocator@N@std@@QEAA@XZ
	??0?$allocator@U?$_Tree_node@U?$pair@$$CBV?$basic_string@DU?$char_traits@D@std@@V?$allocator@D@2@@std@@N@std@@PEAX@std@@@std@@QEAA@XZ
	??0?$allocator@U?$_Tree_node@U?$pair@$$CBV?$basic_string@DU?$char_traits@D@std@@V?$allocator@D@2@@std@@V12@@std@@PEAX@std@@@std@@QEAA@XZ
	??0?$allocator@U?$_Tree_node@U?$pair@$$CBV?$basic_string@DU?$char_traits@D@std@@V?$allocator@D@2@@std@@V?$shared_ptr@VJoint@urdf@@@2@@std@@PEAX@std@@@std@@QEAA@XZ
	??0?$allocator@U?$_Tree_node@U?$pair@$$CBV?$basic_string@DU?$char_traits@D@std@@V?$allocator@D@2@@std@@V?$shared_ptr@VJointMimic@urdf@@@2@@std@@PEAX@std@@@std@@QEAA@XZ
	??0?$allocator@U?$_Tree_node@U?$pair@$$CBV?$basic_string@DU?$char_traits@D@std@@V?$allocator@D@2@@std@@V?$shared_ptr@VLink@urdf@@@2@@std@@PEAX@std@@@std@@QEAA@XZ
	??0?$allocator@U?$_Tree_node@U?$pair@$$CBV?$basic_string@DU?$char_traits@D@std@@V?$allocator@D@2@@std@@V?$shared_ptr@VMaterial@urdf@@@2@@std@@PEAX@std@@@std@@QEAA@XZ
	??0?$allocator@U?$_Tree_node@U?$pair@$$CBV?$basic_string@DU?$char_traits@D@std@@V?$allocator@D@2@@std@@VTime@ros@@@std@@PEAX@std@@@std@@QEAA@XZ
	??0?$allocator@V?$basic_string@DU?$char_traits@D@std@@V?$allocator@D@2@@std@@@std@@QEAA@XZ
	??0?$arg@$00@boost@@QEAA@XZ
	??0?$atomic@H@std@@QEAA@H@Z
	??0?$basic_string@DU?$char_traits@D@std@@V?$allocator@D@2@@std@@QEAA@$$QEAV01@@Z
	??0?$basic_string@DU?$char_traits@D@std@@V?$allocator@D@2@@std@@QEAA@AEBV01@@Z
	??0?$basic_string@DU?$char_traits@D@std@@V?$allocator@D@2@@std@@QEAA@AEBV01@_K1AEBV?$allocator@D@1@@Z
	??0?$basic_string@DU?$char_traits@D@std@@V?$allocator@D@2@@std@@QEAA@QEBD@Z
	??0?$basic_string@DU?$char_traits@D@std@@V?$allocator@D@2@@std@@QEAA@QEBD_K@Z
	??0?$basic_string@DU?$char_traits@D@std@@V?$allocator@D@2@@std@@QEAA@XZ
	??0?$bind_t@XV?$mf1@XVJointStateListener@robot_state_publisher@@AEBUTimerEvent@ros@@@_mfi@boost@@V?$list2@V?$value@PEAVJointStateListener@robot_state_publisher@@@_bi@boost@@U?$arg@$00@3@@_bi@3@@_bi@boost@@QEAA@V?$mf1@XVJointStateListener@robot_state_publisher@@AEBUTimerEvent@ros@@@_mfi@2@AEBV?$list2@V?$value@PEAVJointStateListener@robot_state_publisher@@@_bi@boost@@U?$arg@$00@3@@12@@Z
	??0?$bind_t@XV?$mf1@XVJointStateListener@robot_state_publisher@@AEBV?$shared_ptr@$$CBU?$JointState_@V?$allocator@X@std@@@sensor_msgs@@@boost@@@_mfi@boost@@V?$list2@V?$value@PEAVJointStateListener@robot_state_publisher@@@_bi@boost@@U?$arg@$00@3@@_bi@3@@_bi@boost@@QEAA@V?$mf1@XVJointStateListener@robot_state_publisher@@AEBV?$shared_ptr@$$CBU?$JointState_@V?$allocator@X@std@@@sensor_msgs@@@boost@@@_mfi@2@AEBV?$list2@V?$value@PEAVJointStateListener@robot_state_publisher@@@_bi@boost@@U?$arg@$00@3@@12@@Z
	??0?$clone_impl@U?$error_info_injector@Vbad_function_call@boost@@@exception_detail@boost@@@exception_detail@boost@@AEAA@AEBV012@Uclone_tag@012@@Z
	??0?$clone_impl@U?$error_info_injector@Vbad_function_call@boost@@@exception_detail@boost@@@exception_detail@boost@@QEAA@AEBU?$error_info_injector@Vbad_function_call@boost@@@12@@Z
	??0?$clone_impl@U?$error_info_injector@Vbad_function_call@boost@@@exception_detail@boost@@@exception_detail@boost@@QEAA@AEBV012@@Z
	??0?$error_info_injector@Vbad_function_call@boost@@@exception_detail@boost@@QEAA@AEBU012@@Z
	??0?$error_info_injector@Vbad_function_call@boost@@@exception_detail@boost@@QEAA@AEBVbad_function_call@2@@Z
	??0?$function0@V?$shared_ptr@U?$JointState_@V?$allocator@X@std@@@sensor_msgs@@@boost@@@boost@@QEAA@AEBV01@@Z
	??0?$function0@V?$shared_ptr@U?$JointState_@V?$allocator@X@std@@@sensor_msgs@@@boost@@@boost@@QEAA@XZ
	??0?$function1@XAEBV?$shared_ptr@$$CBU?$JointState_@V?$allocator@X@std@@@sensor_msgs@@@boost@@@boost@@QEAA@AEBV01@@Z
	??0?$function1@XV?$shared_ptr@$$CBU?$JointState_@V?$allocator@X@std@@@sensor_msgs@@@boost@@@boost@@QEAA@AEBV01@@Z
	??0?$function@$$A6A?AV?$shared_ptr@U?$JointState_@V?$allocator@X@std@@@sensor_msgs@@@boost@@XZ@boost@@QEAA@AEBV01@@Z
	??0?$function@$$A6A?AV?$shared_ptr@U?$JointState_@V?$allocator@X@std@@@sensor_msgs@@@boost@@XZ@boost@@QEAA@XZ
	??0?$function@$$A6AXAEBV?$shared_ptr@$$CBU?$JointState_@V?$allocator@X@std@@@sensor_msgs@@@boost@@@Z@boost@@QEAA@AEBV01@@Z
	??0?$function@$$A6AXV?$shared_ptr@$$CBU?$JointState_@V?$allocator@X@std@@@sensor_msgs@@@boost@@@Z@boost@@QEAA@AEBV01@@Z
	??0?$list2@V?$value@PEAVJointStateListener@robot_state_publisher@@@_bi@boost@@U?$arg@$00@3@@_bi@boost@@QEAA@V?$value@PEAVJointStateListener@robot_state_publisher@@@12@U?$arg@$00@2@@Z
	??0?$map@V?$basic_string@DU?$char_traits@D@std@@V?$allocator@D@2@@std@@NU?$less@V?$basic_string@DU?$char_traits@D@std@@V?$allocator@D@2@@std@@@2@V?$allocator@U?$pair@$$CBV?$basic_string@DU?$char_traits@D@std@@V?$allocator@D@2@@std@@N@std@@@2@@std@@QEAA@XZ
	??0?$map@V?$basic_string@DU?$char_traits@D@std@@V?$allocator@D@2@@std@@V12@U?$less@V?$basic_string@DU?$char_traits@D@std@@V?$allocator@D@2@@std@@@2@V?$allocator@U?$pair@$$CBV?$basic_string@DU?$char_traits@D@std@@V?$allocator@D@2@@std@@V12@@std@@@2@@std@@QEAA@XZ
	??0?$map@V?$basic_string@DU?$char_traits@D@std@@V?$allocator@D@2@@std@@V?$shared_ptr@VJoint@urdf@@@2@U?$less@V?$basic_string@DU?$char_traits@D@std@@V?$allocator@D@2@@std@@@2@V?$allocator@U?$pair@$$CBV?$basic_string@DU?$char_traits@D@std@@V?$allocator@D@2@@std@@V?$shared_ptr@VJoint@urdf@@@2@@std@@@2@@std@@QEAA@XZ
	??0?$map@V?$basic_string@DU?$char_traits@D@std@@V?$allocator@D@2@@std@@V?$shared_ptr@VJointMimic@urdf@@@2@U?$less@V?$basic_string@DU?$char_traits@D@std@@V?$allocator@D@2@@std@@@2@V?$allocator@U?$pair@$$CBV?$basic_string@DU?$char_traits@D@std@@V?$allocator@D@2@@std@@V?$shared_ptr@VJointMimic@urdf@@@2@@std@@@2@@std@@QEAA@AEBV01@@Z
	??0?$map@V?$basic_string@DU?$char_traits@D@std@@V?$allocator@D@2@@std@@V?$shared_ptr@VJointMimic@urdf@@@2@U?$less@V?$basic_string@DU?$char_traits@D@std@@V?$allocator@D@2@@std@@@2@V?$allocator@U?$pair@$$CBV?$basic_string@DU?$char_traits@D@std@@V?$allocator@D@2@@std@@V?$shared_ptr@VJointMimic@urdf@@@2@@std@@@2@@std@@QEAA@XZ
	??0?$map@V?$basic_string@DU?$char_traits@D@std@@V?$allocator@D@2@@std@@V?$shared_ptr@VLink@urdf@@@2@U?$less@V?$basic_string@DU?$char_traits@D@std@@V?$allocator@D@2@@std@@@2@V?$allocator@U?$pair@$$CBV?$basic_string@DU?$char_traits@D@std@@V?$allocator@D@2@@std@@V?$shared_ptr@VLink@urdf@@@2@@std@@@2@@std@@QEAA@XZ
	??0?$map@V?$basic_string@DU?$char_traits@D@std@@V?$allocator@D@2@@std@@V?$shared_ptr@VMaterial@urdf@@@2@U?$less@V?$basic_string@DU?$char_traits@D@std@@V?$allocator@D@2@@std@@@2@V?$allocator@U?$pair@$$CBV?$basic_string@DU?$char_traits@D@std@@V?$allocator@D@2@@std@@V?$shared_ptr@VMaterial@urdf@@@2@@std@@@2@@std@@QEAA@XZ
	??0?$map@V?$basic_string@DU?$char_traits@D@std@@V?$allocator@D@2@@std@@VTime@ros@@U?$less@V?$basic_string@DU?$char_traits@D@std@@V?$allocator@D@2@@std@@@2@V?$allocator@U?$pair@$$CBV?$basic_string@DU?$char_traits@D@std@@V?$allocator@D@2@@std@@VTime@ros@@@std@@@2@@std@@QEAA@XZ
	??0?$mf1@XVJointStateListener@robot_state_publisher@@AEBUTimerEvent@ros@@@_mfi@boost@@QEAA@P8JointStateListener@robot_state_publisher@@EAAXAEBUTimerEvent@ros@@@Z@Z
	??0?$mf1@XVJointStateListener@robot_state_publisher@@AEBV?$shared_ptr@$$CBU?$JointState_@V?$allocator@X@std@@@sensor_msgs@@@boost@@@_mfi@boost@@QEAA@P8JointStateListener@robot_state_publisher@@EAAXAEBV?$shared_ptr@$$CBU?$JointState_@V?$allocator@X@std@@@sensor_msgs@@@2@@Z@Z
	??0?$pair@$$CBV?$basic_string@DU?$char_traits@D@std@@V?$allocator@D@2@@std@@V?$shared_ptr@VJointMimic@urdf@@@2@@std@@QEAA@AEBU01@@Z
	??0?$refcount_ptr@Uerror_info_container@exception_detail@boost@@@exception_detail@boost@@QEAA@AEBV012@@Z
	??0?$refcount_ptr@Uerror_info_container@exception_detail@boost@@@exception_detail@boost@@QEAA@XZ
	??0?$rrlist1@AEBUTimerEvent@ros@@@_bi@boost@@QEAA@AEBUTimerEvent@ros@@@Z
	??0?$rrlist1@AEBV?$shared_ptr@$$CBU?$JointState_@V?$allocator@X@std@@@sensor_msgs@@@boost@@@_bi@boost@@QEAA@AEBV?$shared_ptr@$$CBU?$JointState_@V?$allocator@X@std@@@sensor_msgs@@@2@@Z
	??0?$shared_ptr@$$CBU?$JointState_@V?$allocator@X@std@@@sensor_msgs@@@boost@@QEAA@$$QEAV01@@Z
	??0?$shared_ptr@$$CBU?$JointState_@V?$allocator@X@std@@@sensor_msgs@@@boost@@QEAA@AEBV01@@Z
	??0?$shared_ptr@$$CBU?$JointState_@V?$allocator@X@std@@@sensor_msgs@@@boost@@QEAA@XZ
	??0?$shared_ptr@$$CBX@boost@@QEAA@XZ
	??0?$shared_ptr@U?$JointState_@V?$allocator@X@std@@@sensor_msgs@@@boost@@QEAA@$$QEAV01@@Z
	??0?$shared_ptr@U?$JointState_@V?$allocator@X@std@@@sensor_msgs@@@boost@@QEAA@AEBV01@@Z
	??0?$shared_ptr@U?$JointState_@V?$allocator@X@std@@@sensor_msgs@@@boost@@QEAA@XZ
	??0?$shared_ptr@V?$map@V?$basic_string@DU?$char_traits@D@std@@V?$allocator@D@2@@std@@V12@U?$less@V?$basic_string@DU?$char_traits@D@std@@V?$allocator@D@2@@std@@@2@V?$allocator@U?$pair@$$CBV?$basic_string@DU?$char_traits@D@std@@V?$allocator@D@2@@std@@V12@@std@@@2@@std@@@boost@@QEAA@AEBV01@@Z
	??0?$shared_ptr@V?$map@V?$basic_string@DU?$char_traits@D@std@@V?$allocator@D@2@@std@@V12@U?$less@V?$basic_string@DU?$char_traits@D@std@@V?$allocator@D@2@@std@@@2@V?$allocator@U?$pair@$$CBV?$basic_string@DU?$char_traits@D@std@@V?$allocator@D@2@@std@@V12@@std@@@2@@std@@@boost@@QEAA@XZ
	??0?$shared_ptr@VJointMimic@urdf@@@std@@QEAA@$$QEAV01@@Z
	??0?$shared_ptr@VJointMimic@urdf@@@std@@QEAA@AEBV01@@Z
	??0?$shared_ptr@VLink@urdf@@@std@@QEAA@XZ
	??0?$sp_counted_impl_pd@PEAU?$JointState_@V?$allocator@X@std@@@sensor_msgs@@V?$sp_ms_deleter@U?$JointState_@V?$allocator@X@std@@@sensor_msgs@@@detail@boost@@@detail@boost@@QEAA@PEAU?$JointState_@V?$allocator@X@std@@@sensor_msgs@@@Z
	??0?$sp_counted_impl_pd@PEAV?$SubscriptionCallbackHelperT@AEBV?$shared_ptr@$$CBU?$JointState_@V?$allocator@X@std@@@sensor_msgs@@@boost@@X@ros@@V?$sp_ms_deleter@V?$SubscriptionCallbackHelperT@AEBV?$shared_ptr@$$CBU?$JointState_@V?$allocator@X@std@@@sensor_msgs@@@boost@@X@ros@@@detail@boost@@@detail@boost@@QEAA@PEAV?$SubscriptionCallbackHelperT@AEBV?$shared_ptr@$$CBU?$JointState_@V?$allocator@X@std@@@sensor_msgs@@@boost@@X@ros@@@Z
	??0?$sp_ms_deleter@U?$JointState_@V?$allocator@X@std@@@sensor_msgs@@@detail@boost@@QEAA@XZ
	??0?$sp_ms_deleter@V?$SubscriptionCallbackHelperT@AEBV?$shared_ptr@$$CBU?$JointState_@V?$allocator@X@std@@@sensor_msgs@@@boost@@X@ros@@@detail@boost@@QEAA@XZ
	??0?$storage1@V?$value@PEAVJointStateListener@robot_state_publisher@@@_bi@boost@@@_bi@boost@@QEAA@V?$value@PEAVJointStateListener@robot_state_publisher@@@12@@Z
	??0?$storage2@V?$value@PEAVJointStateListener@robot_state_publisher@@@_bi@boost@@U?$arg@$00@3@@_bi@boost@@QEAA@V?$value@PEAVJointStateListener@robot_state_publisher@@@12@U?$arg@$00@2@@Z
	??0?$tuple@$$V@std@@QEAA@AEBV01@@Z
	??0?$tuple@$$V@std@@QEAA@XZ
	??0?$tuple@AEBV?$basic_string@DU?$char_traits@D@std@@V?$allocator@D@2@@std@@@std@@QEAA@$$QEAV01@@Z
	??0?$value@PEAVJointStateListener@robot_state_publisher@@@_bi@boost@@QEAA@AEBQEAVJointStateListener@robot_state_publisher@@@Z
	??0?$vector@NV?$allocator@N@std@@@std@@QEAA@XZ
	??0?$vector@V?$basic_string@DU?$char_traits@D@std@@V?$allocator@D@2@@std@@V?$allocator@V?$basic_string@DU?$char_traits@D@std@@V?$allocator@D@2@@std@@@2@@std@@QEAA@XZ
	??0JointStateListener@robot_state_publisher@@QEAA@AEBVTree@KDL@@AEBV?$map@V?$basic_string@DU?$char_traits@D@std@@V?$allocator@D@2@@std@@V?$shared_ptr@VJointMimic@urdf@@@2@U?$less@V?$basic_string@DU?$char_traits@D@std@@V?$allocator@D@2@@std@@@2@V?$allocator@U?$pair@$$CBV?$basic_string@DU?$char_traits@D@std@@V?$allocator@D@2@@std@@V?$shared_ptr@VJointMimic@urdf@@@2@@std@@@2@@std@@AEBVModel@urdf@@@Z
	??0Model@urdf@@QEAA@XZ
	??0ModelInterface@urdf@@QEAA@XZ
	??0_Bxty@?$_String_val@U?$_Simple_types@D@std@@@std@@QEAA@XZ
	??0_Fake_proxy_ptr_impl@std@@QEAA@AEBU_Fake_allocator@1@AEBU_Container_base0@1@@Z
	??0bad_alloc@std@@AEAA@QEBD@Z
	??0bad_alloc@std@@QEAA@AEBV01@@Z
	??0bad_array_new_length@std@@QEAA@AEBV01@@Z
	??0bad_array_new_length@std@@QEAA@XZ
	??0bad_function_call@boost@@QEAA@AEBV01@@Z
	??0bad_function_call@boost@@QEAA@XZ
	??0clone_base@exception_detail@boost@@QEAA@AEBV012@@Z
	??0clone_base@exception_detail@boost@@QEAA@XZ
	??0exception@boost@@IEAA@XZ
	??0exception@boost@@QEAA@AEBV01@@Z
	??0exception@std@@QEAA@AEBV01@@Z
	??0exception@std@@QEAA@QEBD@Z
	??0exception@std@@QEAA@QEBDH@Z
	??0function_base@boost@@QEAA@XZ
	??0in_place_init_if_t@optional_ns@boost@@QEAA@Uinit_tag@012@@Z
	??0in_place_init_t@optional_ns@boost@@QEAA@Uinit_tag@012@@Z
	??0none_t@boost@@QEAA@Uinit_tag@01@@Z
	??0runtime_error@std@@QEAA@AEBV01@@Z
	??0runtime_error@std@@QEAA@PEBD@Z
	??0shared_count@detail@boost@@QEAA@AEBV012@@Z
	??0shared_count@detail@boost@@QEAA@XZ
	??0sp_counted_base@detail@boost@@QEAA@XZ
	??0stl_type_index@typeindex@boost@@QEAA@AEBVtype_info@@@Z
	??1?$Header_@V?$allocator@X@std@@@std_msgs@@QEAA@XZ
	??1?$JointState_@V?$allocator@X@std@@@sensor_msgs@@QEAA@XZ
	??1?$MessageEvent@$$CBU?$JointState_@V?$allocator@X@std@@@sensor_msgs@@@ros@@QEAA@XZ
	??1?$PreDeserializeParams@U?$JointState_@V?$allocator@X@std@@@sensor_msgs@@@serialization@ros@@QEAA@XZ
	??1?$SubscriptionCallbackHelperT@AEBV?$shared_ptr@$$CBU?$JointState_@V?$allocator@X@std@@@sensor_msgs@@@boost@@X@ros@@UEAA@XZ
	??1?$TFMessage_@V?$allocator@X@std@@@tf2_msgs@@QEAA@XZ
	??1?$TransformStamped_@V?$allocator@X@std@@@geometry_msgs@@QEAA@XZ
	??1?$_Alloc_construct_ptr@V?$allocator@U?$_Tree_node@U?$pair@$$CBV?$basic_string@DU?$char_traits@D@std@@V?$allocator@D@2@@std@@N@std@@PEAX@std@@@std@@@std@@QEAA@XZ
	??1?$_Alloc_construct_ptr@V?$allocator@U?$_Tree_node@U?$pair@$$CBV?$basic_string@DU?$char_traits@D@std@@V?$allocator@D@2@@std@@V?$shared_ptr@VJointMimic@urdf@@@2@@std@@PEAX@std@@@std@@@std@@QEAA@XZ
	??1?$_Alloc_construct_ptr@V?$allocator@U?$_Tree_node@U?$pair@$$CBV?$basic_string@DU?$char_traits@D@std@@V?$allocator@D@2@@std@@VTime@ros@@@std@@PEAX@std@@@std@@@std@@QEAA@XZ
	??1?$_Compressed_pair@V?$allocator@D@std@@V?$_String_val@U?$_Simple_types@D@std@@@2@$00@std@@QEAA@XZ
	??1?$_String_val@U?$_Simple_types@D@std@@@std@@QEAA@XZ
	??1?$_Tree@V?$_Tmap_traits@V?$basic_string@DU?$char_traits@D@std@@V?$allocator@D@2@@std@@NU?$less@V?$basic_string@DU?$char_traits@D@std@@V?$allocator@D@2@@std@@@2@V?$allocator@U?$pair@$$CBV?$basic_string@DU?$char_traits@D@std@@V?$allocator@D@2@@std@@N@std@@@2@$0A@@std@@@std@@QEAA@XZ
	??1?$_Tree@V?$_Tmap_traits@V?$basic_string@DU?$char_traits@D@std@@V?$allocator@D@2@@std@@V12@U?$less@V?$basic_string@DU?$char_traits@D@std@@V?$allocator@D@2@@std@@@2@V?$allocator@U?$pair@$$CBV?$basic_string@DU?$char_traits@D@std@@V?$allocator@D@2@@std@@V12@@std@@@2@$0A@@std@@@std@@QEAA@XZ
	??1?$_Tree@V?$_Tmap_traits@V?$basic_string@DU?$char_traits@D@std@@V?$allocator@D@2@@std@@V?$shared_ptr@VJoint@urdf@@@2@U?$less@V?$basic_string@DU?$char_traits@D@std@@V?$allocator@D@2@@std@@@2@V?$allocator@U?$pair@$$CBV?$basic_string@DU?$char_traits@D@std@@V?$allocator@D@2@@std@@V?$shared_ptr@VJoint@urdf@@@2@@std@@@2@$0A@@std@@@std@@QEAA@XZ
	??1?$_Tree@V?$_Tmap_traits@V?$basic_string@DU?$char_traits@D@std@@V?$allocator@D@2@@std@@V?$shared_ptr@VJointMimic@urdf@@@2@U?$less@V?$basic_string@DU?$char_traits@D@std@@V?$allocator@D@2@@std@@@2@V?$allocator@U?$pair@$$CBV?$basic_string@DU?$char_traits@D@std@@V?$allocator@D@2@@std@@V?$shared_ptr@VJointMimic@urdf@@@2@@std@@@2@$0A@@std@@@std@@QEAA@XZ
	??1?$_Tree@V?$_Tmap_traits@V?$basic_string@DU?$char_traits@D@std@@V?$allocator@D@2@@std@@V?$shared_ptr@VLink@urdf@@@2@U?$less@V?$basic_string@DU?$char_traits@D@std@@V?$allocator@D@2@@std@@@2@V?$allocator@U?$pair@$$CBV?$basic_string@DU?$char_traits@D@std@@V?$allocator@D@2@@std@@V?$shared_ptr@VLink@urdf@@@2@@std@@@2@$0A@@std@@@std@@QEAA@XZ
	??1?$_Tree@V?$_Tmap_traits@V?$basic_string@DU?$char_traits@D@std@@V?$allocator@D@2@@std@@V?$shared_ptr@VMaterial@urdf@@@2@U?$less@V?$basic_string@DU?$char_traits@D@std@@V?$allocator@D@2@@std@@@2@V?$allocator@U?$pair@$$CBV?$basic_string@DU?$char_traits@D@std@@V?$allocator@D@2@@std@@V?$shared_ptr@VMaterial@urdf@@@2@@std@@@2@$0A@@std@@@std@@QEAA@XZ
	??1?$_Tree@V?$_Tmap_traits@V?$basic_string@DU?$char_traits@D@std@@V?$allocator@D@2@@std@@VSegmentPair@robot_state_publisher@@U?$less@V?$basic_string@DU?$char_traits@D@std@@V?$allocator@D@2@@std@@@2@V?$allocator@U?$pair@$$CBV?$basic_string@DU?$char_traits@D@std@@V?$allocator@D@2@@std@@VSegmentPair@robot_state_publisher@@@std@@@2@$0A@@std@@@std@@QEAA@XZ
	??1?$_Tree@V?$_Tmap_traits@V?$basic_string@DU?$char_traits@D@std@@V?$allocator@D@2@@std@@VTime@ros@@U?$less@V?$basic_string@DU?$char_traits@D@std@@V?$allocator@D@2@@std@@@2@V?$allocator@U?$pair@$$CBV?$basic_string@DU?$char_traits@D@std@@V?$allocator@D@2@@std@@VTime@ros@@@std@@@2@$0A@@std@@@std@@QEAA@XZ
	??1?$_Tree@V?$_Tmap_traits@V?$basic_string@DU?$char_traits@D@std@@V?$allocator@D@2@@std@@VTreeElement@KDL@@U?$less@V?$basic_string@DU?$char_traits@D@std@@V?$allocator@D@2@@std@@@2@V?$allocator@U?$pair@$$CBV?$basic_string@DU?$char_traits@D@std@@V?$allocator@D@2@@std@@VTreeElement@KDL@@@std@@@2@$0A@@std@@@std@@QEAA@XZ
	??1?$_Tree_head_scoped_ptr@V?$allocator@U?$_Tree_node@U?$pair@$$CBV?$basic_string@DU?$char_traits@D@std@@V?$allocator@D@2@@std@@V?$shared_ptr@VJointMimic@urdf@@@2@@std@@PEAX@std@@@std@@V?$_Tree_val@U?$_Tree_simple_types@U?$pair@$$CBV?$basic_string@DU?$char_traits@D@std@@V?$allocator@D@2@@std@@V?$shared_ptr@VJointMimic@urdf@@@2@@std@@@std@@@2@@std@@QEAA@XZ
	??1?$_Tree_temp_node@V?$allocator@U?$_Tree_node@U?$pair@$$CBV?$basic_string@DU?$char_traits@D@std@@V?$allocator@D@2@@std@@N@std@@PEAX@std@@@std@@@std@@QEAA@XZ
	??1?$_Tree_temp_node@V?$allocator@U?$_Tree_node@U?$pair@$$CBV?$basic_string@DU?$char_traits@D@std@@V?$allocator@D@2@@std@@V?$shared_ptr@VJointMimic@urdf@@@2@@std@@PEAX@std@@@std@@@std@@QEAA@XZ
	??1?$_Tree_temp_node@V?$allocator@U?$_Tree_node@U?$pair@$$CBV?$basic_string@DU?$char_traits@D@std@@V?$allocator@D@2@@std@@VTime@ros@@@std@@PEAX@std@@@std@@@std@@QEAA@XZ
	??1?$_Tree_temp_node_alloc@V?$allocator@U?$_Tree_node@U?$pair@$$CBV?$basic_string@DU?$char_traits@D@std@@V?$allocator@D@2@@std@@N@std@@PEAX@std@@@std@@@std@@QEAA@XZ
	??1?$_Tree_temp_node_alloc@V?$allocator@U?$_Tree_node@U?$pair@$$CBV?$basic_string@DU?$char_traits@D@std@@V?$allocator@D@2@@std@@V?$shared_ptr@VJointMimic@urdf@@@2@@std@@PEAX@std@@@std@@@std@@QEAA@XZ
	??1?$_Tree_temp_node_alloc@V?$allocator@U?$_Tree_node@U?$pair@$$CBV?$basic_string@DU?$char_traits@D@std@@V?$allocator@D@2@@std@@VTime@ros@@@std@@PEAX@std@@@std@@@std@@QEAA@XZ
	??1?$_Uninitialized_backout_al@V?$allocator@V?$basic_string@DU?$char_traits@D@std@@V?$allocator@D@2@@std@@@std@@@std@@QEAA@XZ
	??1?$basic_string@DU?$char_traits@D@std@@V?$allocator@D@2@@std@@QEAA@XZ
	??1?$clone_impl@U?$error_info_injector@Vbad_function_call@boost@@@exception_detail@boost@@@exception_detail@boost@@UEAA@XZ
	??1?$error_info_injector@Vbad_function_call@boost@@@exception_detail@boost@@UEAA@XZ
	??1?$function0@V?$shared_ptr@U?$JointState_@V?$allocator@X@std@@@sensor_msgs@@@boost@@@boost@@QEAA@XZ
	??1?$function1@XAEBUTimerEvent@ros@@@boost@@QEAA@XZ
	??1?$function1@XAEBV?$shared_ptr@$$CBU?$JointState_@V?$allocator@X@std@@@sensor_msgs@@@boost@@@boost@@QEAA@XZ
	??1?$function1@XV?$shared_ptr@$$CBU?$JointState_@V?$allocator@X@std@@@sensor_msgs@@@boost@@@boost@@QEAA@XZ
	??1?$function@$$A6A?AV?$shared_ptr@U?$JointState_@V?$allocator@X@std@@@sensor_msgs@@@boost@@XZ@boost@@QEAA@XZ
	??1?$function@$$A6AXAEBUTimerEvent@ros@@@Z@boost@@QEAA@XZ
	??1?$function@$$A6AXAEBV?$shared_ptr@$$CBU?$JointState_@V?$allocator@X@std@@@sensor_msgs@@@boost@@@Z@boost@@QEAA@XZ
	??1?$function@$$A6AXV?$shared_ptr@$$CBU?$JointState_@V?$allocator@X@std@@@sensor_msgs@@@boost@@@Z@boost@@QEAA@XZ
	??1?$map@V?$basic_string@DU?$char_traits@D@std@@V?$allocator@D@2@@std@@NU?$less@V?$basic_string@DU?$char_traits@D@std@@V?$allocator@D@2@@std@@@2@V?$allocator@U?$pair@$$CBV?$basic_string@DU?$char_traits@D@std@@V?$allocator@D@2@@std@@N@std@@@2@@std@@QEAA@XZ
	??1?$map@V?$basic_string@DU?$char_traits@D@std@@V?$allocator@D@2@@std@@V12@U?$less@V?$basic_string@DU?$char_traits@D@std@@V?$allocator@D@2@@std@@@2@V?$allocator@U?$pair@$$CBV?$basic_string@DU?$char_traits@D@std@@V?$allocator@D@2@@std@@V12@@std@@@2@@std@@QEAA@XZ
	??1?$map@V?$basic_string@DU?$char_traits@D@std@@V?$allocator@D@2@@std@@V?$shared_ptr@VJoint@urdf@@@2@U?$less@V?$basic_string@DU?$char_traits@D@std@@V?$allocator@D@2@@std@@@2@V?$allocator@U?$pair@$$CBV?$basic_string@DU?$char_traits@D@std@@V?$allocator@D@2@@std@@V?$shared_ptr@VJoint@urdf@@@2@@std@@@2@@std@@QEAA@XZ
	??1?$map@V?$basic_string@DU?$char_traits@D@std@@V?$allocator@D@2@@std@@V?$shared_ptr@VJointMimic@urdf@@@2@U?$less@V?$basic_string@DU?$char_traits@D@std@@V?$allocator@D@2@@std@@@2@V?$allocator@U?$pair@$$CBV?$basic_string@DU?$char_traits@D@std@@V?$allocator@D@2@@std@@V?$shared_ptr@VJointMimic@urdf@@@2@@std@@@2@@std@@QEAA@XZ
	??1?$map@V?$basic_string@DU?$char_traits@D@std@@V?$allocator@D@2@@std@@V?$shared_ptr@VLink@urdf@@@2@U?$less@V?$basic_string@DU?$char_traits@D@std@@V?$allocator@D@2@@std@@@2@V?$allocator@U?$pair@$$CBV?$basic_string@DU?$char_traits@D@std@@V?$allocator@D@2@@std@@V?$shared_ptr@VLink@urdf@@@2@@std@@@2@@std@@QEAA@XZ
	??1?$map@V?$basic_string@DU?$char_traits@D@std@@V?$allocator@D@2@@std@@V?$shared_ptr@VMaterial@urdf@@@2@U?$less@V?$basic_string@DU?$char_traits@D@std@@V?$allocator@D@2@@std@@@2@V?$allocator@U?$pair@$$CBV?$basic_string@DU?$char_traits@D@std@@V?$allocator@D@2@@std@@V?$shared_ptr@VMaterial@urdf@@@2@@std@@@2@@std@@QEAA@XZ
	??1?$map@V?$basic_string@DU?$char_traits@D@std@@V?$allocator@D@2@@std@@VSegmentPair@robot_state_publisher@@U?$less@V?$basic_string@DU?$char_traits@D@std@@V?$allocator@D@2@@std@@@2@V?$allocator@U?$pair@$$CBV?$basic_string@DU?$char_traits@D@std@@V?$allocator@D@2@@std@@VSegmentPair@robot_state_publisher@@@std@@@2@@std@@QEAA@XZ
	??1?$map@V?$basic_string@DU?$char_traits@D@std@@V?$allocator@D@2@@std@@VTime@ros@@U?$less@V?$basic_string@DU?$char_traits@D@std@@V?$allocator@D@2@@std@@@2@V?$allocator@U?$pair@$$CBV?$basic_string@DU?$char_traits@D@std@@V?$allocator@D@2@@std@@VTime@ros@@@std@@@2@@std@@QEAA@XZ
	??1?$map@V?$basic_string@DU?$char_traits@D@std@@V?$allocator@D@2@@std@@VTreeElement@KDL@@U?$less@V?$basic_string@DU?$char_traits@D@std@@V?$allocator@D@2@@std@@@2@V?$allocator@U?$pair@$$CBV?$basic_string@DU?$char_traits@D@std@@V?$allocator@D@2@@std@@VTreeElement@KDL@@@std@@@2@@std@@QEAA@XZ
	??1?$pair@$$CBV?$basic_string@DU?$char_traits@D@std@@V?$allocator@D@2@@std@@N@std@@QEAA@XZ
	??1?$pair@$$CBV?$basic_string@DU?$char_traits@D@std@@V?$allocator@D@2@@std@@V12@@std@@QEAA@XZ
	??1?$pair@$$CBV?$basic_string@DU?$char_traits@D@std@@V?$allocator@D@2@@std@@V?$shared_ptr@VJoint@urdf@@@2@@std@@QEAA@XZ
	??1?$pair@$$CBV?$basic_string@DU?$char_traits@D@std@@V?$allocator@D@2@@std@@V?$shared_ptr@VJointMimic@urdf@@@2@@std@@QEAA@XZ
	??1?$pair@$$CBV?$basic_string@DU?$char_traits@D@std@@V?$allocator@D@2@@std@@V?$shared_ptr@VLink@urdf@@@2@@std@@QEAA@XZ
	??1?$pair@$$CBV?$basic_string@DU?$char_traits@D@std@@V?$allocator@D@2@@std@@V?$shared_ptr@VMaterial@urdf@@@2@@std@@QEAA@XZ
	??1?$pair@$$CBV?$basic_string@DU?$char_traits@D@std@@V?$allocator@D@2@@std@@VSegmentPair@robot_state_publisher@@@std@@QEAA@XZ
	??1?$pair@$$CBV?$basic_string@DU?$char_traits@D@std@@V?$allocator@D@2@@std@@VTime@ros@@@std@@QEAA@XZ
	??1?$pair@$$CBV?$basic_string@DU?$char_traits@D@std@@V?$allocator@D@2@@std@@VTreeElement@KDL@@@std@@QEAA@XZ
	??1?$pair@V?$basic_string@DU?$char_traits@D@std@@V?$allocator@D@2@@std@@N@std@@QEAA@XZ
	??1?$pair@V?$basic_string@DU?$char_traits@D@std@@V?$allocator@D@2@@std@@V?$shared_ptr@VJointMimic@urdf@@@2@@std@@QEAA@XZ
	??1?$refcount_ptr@Uerror_info_container@exception_detail@boost@@@exception_detail@boost@@QEAA@XZ
	??1?$shared_ptr@$$CBU?$JointState_@V?$allocator@X@std@@@sensor_msgs@@@boost@@QEAA@XZ
	??1?$shared_ptr@$$CBX@boost@@QEAA@XZ
	??1?$shared_ptr@U?$JointState_@V?$allocator@X@std@@@sensor_msgs@@@boost@@QEAA@XZ
	??1?$shared_ptr@V?$SubscriptionCallbackHelperT@AEBV?$shared_ptr@$$CBU?$JointState_@V?$allocator@X@std@@@sensor_msgs@@@boost@@X@ros@@@boost@@QEAA@XZ
	??1?$shared_ptr@V?$map@V?$basic_string@DU?$char_traits@D@std@@V?$allocator@D@2@@std@@V12@U?$less@V?$basic_string@DU?$char_traits@D@std@@V?$allocator@D@2@@std@@@2@V?$allocator@U?$pair@$$CBV?$basic_string@DU?$char_traits@D@std@@V?$allocator@D@2@@std@@V12@@std@@@2@@std@@@boost@@QEAA@XZ
	??1?$shared_ptr@VJoint@urdf@@@std@@QEAA@XZ
	??1?$shared_ptr@VJointMimic@urdf@@@std@@QEAA@XZ
	??1?$shared_ptr@VLink@urdf@@@std@@QEAA@XZ
	??1?$shared_ptr@VMaterial@urdf@@@std@@QEAA@XZ
	??1?$shared_ptr@VSubscriptionCallbackHelper@ros@@@boost@@QEAA@XZ
	??1?$shared_ptr@X@boost@@QEAA@XZ
	??1?$sp_counted_impl_pd@PEAU?$JointState_@V?$allocator@X@std@@@sensor_msgs@@V?$sp_ms_deleter@U?$JointState_@V?$allocator@X@std@@@sensor_msgs@@@detail@boost@@@detail@boost@@UEAA@XZ
	??1?$sp_counted_impl_pd@PEAV?$SubscriptionCallbackHelperT@AEBV?$shared_ptr@$$CBU?$JointState_@V?$allocator@X@std@@@sensor_msgs@@@boost@@X@ros@@V?$sp_ms_deleter@V?$SubscriptionCallbackHelperT@AEBV?$shared_ptr@$$CBU?$JointState_@V?$allocator@X@std@@@sensor_msgs@@@boost@@X@ros@@@detail@boost@@@detail@boost@@UEAA@XZ
	??1?$sp_ms_deleter@U?$JointState_@V?$allocator@X@std@@@sensor_msgs@@@detail@boost@@QEAA@XZ
	??1?$sp_ms_deleter@V?$SubscriptionCallbackHelperT@AEBV?$shared_ptr@$$CBU?$JointState_@V?$allocator@X@std@@@sensor_msgs@@@boost@@X@ros@@@detail@boost@@QEAA@XZ
	??1?$vector@NV?$allocator@N@std@@@std@@QEAA@XZ
	??1?$vector@U?$TransformStamped_@V?$allocator@X@std@@@geometry_msgs@@V?$allocator@U?$TransformStamped_@V?$allocator@X@std@@@geometry_msgs@@@std@@@std@@QEAA@XZ
	??1?$vector@V?$_Tree_const_iterator@V?$_Tree_val@U?$_Tree_simple_types@U?$pair@$$CBV?$basic_string@DU?$char_traits@D@std@@V?$allocator@D@2@@std@@VTreeElement@KDL@@@std@@@std@@@std@@@std@@V?$allocator@V?$_Tree_const_iterator@V?$_Tree_val@U?$_Tree_simple_types@U?$pair@$$CBV?$basic_string@DU?$char_traits@D@std@@V?$allocator@D@2@@std@@VTreeElement@KDL@@@std@@@std@@@std@@@std@@@2@@std@@QEAA@XZ
	??1?$vector@V?$basic_string@DU?$char_traits@D@std@@V?$allocator@D@2@@std@@V?$allocator@V?$basic_string@DU?$char_traits@D@std@@V?$allocator@D@2@@std@@@2@@std@@QEAA@XZ
	??1JointStateListener@robot_state_publisher@@QEAA@XZ
	??1Model@urdf@@QEAA@XZ
	??1ModelInterface@urdf@@QEAA@XZ
	??1RobotStatePublisher@robot_state_publisher@@QEAA@XZ
	??1SegmentPair@robot_state_publisher@@QEAA@XZ
	??1StaticTransformBroadcaster@tf2_ros@@QEAA@XZ
	??1TransformBroadcaster@tf2_ros@@QEAA@XZ
	??1Tree@KDL@@UEAA@XZ
	??1TreeElement@KDL@@QEAA@XZ
	??1_Bxty@?$_String_val@U?$_Simple_types@D@std@@@std@@QEAA@XZ
	??1bad_alloc@std@@UEAA@XZ
	??1bad_array_new_length@std@@UEAA@XZ
	??1bad_function_call@boost@@UEAA@XZ
	??1clone_base@exception_detail@boost@@UEAA@XZ
	??1exception@boost@@MEAA@XZ
	??1exception@std@@UEAA@XZ
	??1runtime_error@std@@UEAA@XZ
	??1shared_count@detail@boost@@QEAA@XZ
	??1sp_counted_base@detail@boost@@UEAA@XZ
	??2@YAPEAX_KPEAX@Z
	??4?$Header_@V?$allocator@X@std@@@std_msgs@@QEAAAEAU01@AEBU01@@Z
	??4?$JointState_@V?$allocator@X@std@@@sensor_msgs@@QEAAAEAU01@AEBU01@@Z
	??4?$basic_string@DU?$char_traits@D@std@@V?$allocator@D@2@@std@@QEAAAEAV01@$$QEAV01@@Z
	??4?$basic_string@DU?$char_traits@D@std@@V?$allocator@D@2@@std@@QEAAAEAV01@AEBV01@@Z
	??4?$basic_string@DU?$char_traits@D@std@@V?$allocator@D@2@@std@@QEAAAEAV01@QEBD@Z
	??4?$function@$$A6A?AV?$shared_ptr@U?$JointState_@V?$allocator@X@std@@@sensor_msgs@@@boost@@XZ@boost@@QEAAAEAV01@AEBV01@@Z
	??4?$refcount_ptr@Uerror_info_container@exception_detail@boost@@@exception_detail@boost@@QEAAAEAV012@AEBV012@@Z
	??4?$shared_ptr@$$CBU?$JointState_@V?$allocator@X@std@@@sensor_msgs@@@boost@@QEAAAEAV01@AEBV01@@Z
	??4?$shared_ptr@U?$JointState_@V?$allocator@X@std@@@sensor_msgs@@@boost@@QEAAAEAV01@$$QEAV01@@Z
	??4?$shared_ptr@U?$JointState_@V?$allocator@X@std@@@sensor_msgs@@@boost@@QEAAAEAV01@AEBV01@@Z
	??4?$shared_ptr@V?$map@V?$basic_string@DU?$char_traits@D@std@@V?$allocator@D@2@@std@@V12@U?$less@V?$basic_string@DU?$char_traits@D@std@@V?$allocator@D@2@@std@@@2@V?$allocator@U?$pair@$$CBV?$basic_string@DU?$char_traits@D@std@@V?$allocator@D@2@@std@@V12@@std@@@2@@std@@@boost@@QEAAAEAV01@AEBV01@@Z
	??4?$vector@NV?$allocator@N@std@@@std@@QEAAAEAV01@AEBV01@@Z
	??4?$vector@V?$basic_string@DU?$char_traits@D@std@@V?$allocator@D@2@@std@@V?$allocator@V?$basic_string@DU?$char_traits@D@std@@V?$allocator@D@2@@std@@@2@@std@@QEAAAEAV01@AEBV01@@Z
	??7?$shared_ptr@U?$JointState_@V?$allocator@X@std@@@sensor_msgs@@@boost@@QEBA_NXZ
	??8?$_Tree_const_iterator@V?$_Tree_val@U?$_Tree_simple_types@U?$pair@$$CBV?$basic_string@DU?$char_traits@D@std@@V?$allocator@D@2@@std@@N@std@@@std@@@std@@@std@@QEBA_NAEBV01@@Z
	??8?$_Tree_const_iterator@V?$_Tree_val@U?$_Tree_simple_types@U?$pair@$$CBV?$basic_string@DU?$char_traits@D@std@@V?$allocator@D@2@@std@@V?$shared_ptr@VJoint@urdf@@@2@@std@@@std@@@std@@@std@@QEBA_NAEBV01@@Z
	??8?$_Tree_const_iterator@V?$_Tree_val@U?$_Tree_simple_types@U?$pair@$$CBV?$basic_string@DU?$char_traits@D@std@@V?$allocator@D@2@@std@@V?$shared_ptr@VJointMimic@urdf@@@2@@std@@@std@@@std@@@std@@QEBA_NAEBV01@@Z
	??8?$_Vector_const_iterator@V?$_Vector_val@U?$_Simple_types@V?$basic_string@DU?$char_traits@D@std@@V?$allocator@D@2@@std@@@std@@@std@@@std@@QEBA_NAEBV01@@Z
	??8type_info@@QEBA_NAEBV0@@Z
	??9?$_Tree_const_iterator@V?$_Tree_val@U?$_Tree_simple_types@U?$pair@$$CBV?$basic_string@DU?$char_traits@D@std@@V?$allocator@D@2@@std@@N@std@@@std@@@std@@@std@@QEBA_NAEBV01@@Z
	??9?$_Tree_const_iterator@V?$_Tree_val@U?$_Tree_simple_types@U?$pair@$$CBV?$basic_string@DU?$char_traits@D@std@@V?$allocator@D@2@@std@@V?$shared_ptr@VJoint@urdf@@@2@@std@@@std@@@std@@@std@@QEBA_NAEBV01@@Z
	??9?$_Tree_const_iterator@V?$_Tree_val@U?$_Tree_simple_types@U?$pair@$$CBV?$basic_string@DU?$char_traits@D@std@@V?$allocator@D@2@@std@@V?$shared_ptr@VJointMimic@urdf@@@2@@std@@@std@@@std@@@std@@QEBA_NAEBV01@@Z
	??9?$_Vector_const_iterator@V?$_Vector_val@U?$_Simple_types@V?$basic_string@DU?$char_traits@D@std@@V?$allocator@D@2@@std@@@std@@@std@@@std@@QEBA_NAEBV01@@Z
	??A?$map@V?$basic_string@DU?$char_traits@D@std@@V?$allocator@D@2@@std@@NU?$less@V?$basic_string@DU?$char_traits@D@std@@V?$allocator@D@2@@std@@@2@V?$allocator@U?$pair@$$CBV?$basic_string@DU?$char_traits@D@std@@V?$allocator@D@2@@std@@N@std@@@2@@std@@QEAAAEANAEBV?$basic_string@DU?$char_traits@D@std@@V?$allocator@D@2@@1@@Z
	??A?$map@V?$basic_string@DU?$char_traits@D@std@@V?$allocator@D@2@@std@@VTime@ros@@U?$less@V?$basic_string@DU?$char_traits@D@std@@V?$allocator@D@2@@std@@@2@V?$allocator@U?$pair@$$CBV?$basic_string@DU?$char_traits@D@std@@V?$allocator@D@2@@std@@VTime@ros@@@std@@@2@@std@@QEAAAEAVTime@ros@@AEBV?$basic_string@DU?$char_traits@D@std@@V?$allocator@D@2@@1@@Z
	??A?$rrlist1@AEBUTimerEvent@ros@@@_bi@boost@@QEBAAEBUTimerEvent@ros@@P6A?AU?$arg@$00@2@XZ@Z
	??A?$rrlist1@AEBV?$shared_ptr@$$CBU?$JointState_@V?$allocator@X@std@@@sensor_msgs@@@boost@@@_bi@boost@@QEBAAEBV?$shared_ptr@$$CBU?$JointState_@V?$allocator@X@std@@@sensor_msgs@@@2@P6A?AU?$arg@$00@2@XZ@Z
	??A?$vector@NV?$allocator@N@std@@@std@@QEBAAEBN_K@Z
	??A?$vector@V?$basic_string@DU?$char_traits@D@std@@V?$allocator@D@2@@std@@V?$allocator@V?$basic_string@DU?$char_traits@D@std@@V?$allocator@D@2@@std@@@2@@std@@QEBAAEBV?$basic_string@DU?$char_traits@D@std@@V?$allocator@D@2@@1@_K@Z
	??B?$shared_ptr@U?$JointState_@V?$allocator@X@std@@@sensor_msgs@@@boost@@QEBA_NXZ
	??B?$shared_ptr@VJointMimic@urdf@@@std@@QEBA_NXZ
	??C?$_Tree_iterator@V?$_Tree_val@U?$_Tree_simple_types@U?$pair@$$CBV?$basic_string@DU?$char_traits@D@std@@V?$allocator@D@2@@std@@V?$shared_ptr@VJoint@urdf@@@2@@std@@@std@@@std@@@std@@QEBAPEAU?$pair@$$CBV?$basic_string@DU?$char_traits@D@std@@V?$allocator@D@2@@std@@V?$shared_ptr@VJoint@urdf@@@2@@1@XZ
	??C?$_Tree_iterator@V?$_Tree_val@U?$_Tree_simple_types@U?$pair@$$CBV?$basic_string@DU?$char_traits@D@std@@V?$allocator@D@2@@std@@V?$shared_ptr@VJointMimic@urdf@@@2@@std@@@std@@@std@@@std@@QEBAPEAU?$pair@$$CBV?$basic_string@DU?$char_traits@D@std@@V?$allocator@D@2@@std@@V?$shared_ptr@VJointMimic@urdf@@@2@@1@XZ
	??C?$shared_ptr@$$CBU?$JointState_@V?$allocator@X@std@@@sensor_msgs@@@boost@@QEBAPEBU?$JointState_@V?$allocator@X@std@@@sensor_msgs@@XZ
	??D?$_Tree_const_iterator@V?$_Tree_val@U?$_Tree_simple_types@U?$pair@$$CBV?$basic_string@DU?$char_traits@D@std@@V?$allocator@D@2@@std@@V?$shared_ptr@VJoint@urdf@@@2@@std@@@std@@@std@@@std@@QEBAAEBU?$pair@$$CBV?$basic_string@DU?$char_traits@D@std@@V?$allocator@D@2@@std@@V?$shared_ptr@VJoint@urdf@@@2@@1@XZ
	??D?$_Tree_const_iterator@V?$_Tree_val@U?$_Tree_simple_types@U?$pair@$$CBV?$basic_string@DU?$char_traits@D@std@@V?$allocator@D@2@@std@@V?$shared_ptr@VJointMimic@urdf@@@2@@std@@@std@@@std@@@std@@QEBAAEBU?$pair@$$CBV?$basic_string@DU?$char_traits@D@std@@V?$allocator@D@2@@std@@V?$shared_ptr@VJointMimic@urdf@@@2@@1@XZ
	??D?$_Tree_iterator@V?$_Tree_val@U?$_Tree_simple_types@U?$pair@$$CBV?$basic_string@DU?$char_traits@D@std@@V?$allocator@D@2@@std@@V?$shared_ptr@VJoint@urdf@@@2@@std@@@std@@@std@@@std@@QEBAAEAU?$pair@$$CBV?$basic_string@DU?$char_traits@D@std@@V?$allocator@D@2@@std@@V?$shared_ptr@VJoint@urdf@@@2@@1@XZ
	??D?$_Tree_iterator@V?$_Tree_val@U?$_Tree_simple_types@U?$pair@$$CBV?$basic_string@DU?$char_traits@D@std@@V?$allocator@D@2@@std@@V?$shared_ptr@VJointMimic@urdf@@@2@@std@@@std@@@std@@@std@@QEBAAEAU?$pair@$$CBV?$basic_string@DU?$char_traits@D@std@@V?$allocator@D@2@@std@@V?$shared_ptr@VJointMimic@urdf@@@2@@1@XZ
	??D?$_Vector_const_iterator@V?$_Vector_val@U?$_Simple_types@V?$basic_string@DU?$char_traits@D@std@@V?$allocator@D@2@@std@@@std@@@std@@@std@@QEBAAEBV?$basic_string@DU?$char_traits@D@std@@V?$allocator@D@2@@1@XZ
	??D?$_Vector_iterator@V?$_Vector_val@U?$_Simple_types@V?$basic_string@DU?$char_traits@D@std@@V?$allocator@D@2@@std@@@std@@@std@@@std@@QEBAAEAV?$basic_string@DU?$char_traits@D@std@@V?$allocator@D@2@@1@XZ
	??D?$shared_ptr@$$CBU?$JointState_@V?$allocator@X@std@@@sensor_msgs@@@boost@@QEBAAEBU?$JointState_@V?$allocator@X@std@@@sensor_msgs@@XZ
	??D?$shared_ptr@U?$JointState_@V?$allocator@X@std@@@sensor_msgs@@@boost@@QEBAAEAU?$JointState_@V?$allocator@X@std@@@sensor_msgs@@XZ
	??E?$_Tree_const_iterator@V?$_Tree_val@U?$_Tree_simple_types@U?$pair@$$CBV?$basic_string@DU?$char_traits@D@std@@V?$allocator@D@2@@std@@V?$shared_ptr@VJoint@urdf@@@2@@std@@@std@@@std@@@std@@QEAAAEAV01@XZ
	??E?$_Tree_const_iterator@V?$_Tree_val@U?$_Tree_simple_types@U?$pair@$$CBV?$basic_string@DU?$char_traits@D@std@@V?$allocator@D@2@@std@@V?$shared_ptr@VJointMimic@urdf@@@2@@std@@@std@@@std@@@std@@QEAAAEAV01@XZ
	??E?$_Tree_iterator@V?$_Tree_val@U?$_Tree_simple_types@U?$pair@$$CBV?$basic_string@DU?$char_traits@D@std@@V?$allocator@D@2@@std@@V?$shared_ptr@VJoint@urdf@@@2@@std@@@std@@@std@@@std@@QEAA?AV01@H@Z
	??E?$_Tree_iterator@V?$_Tree_val@U?$_Tree_simple_types@U?$pair@$$CBV?$basic_string@DU?$char_traits@D@std@@V?$allocator@D@2@@std@@V?$shared_ptr@VJointMimic@urdf@@@2@@std@@@std@@@std@@@std@@QEAA?AV01@H@Z
	??E?$_Tree_unchecked_const_iterator@V?$_Tree_val@U?$_Tree_simple_types@U?$pair@$$CBV?$basic_string@DU?$char_traits@D@std@@V?$allocator@D@2@@std@@V?$shared_ptr@VJoint@urdf@@@2@@std@@@std@@@std@@U_Iterator_base0@2@@std@@QEAAAEAV01@XZ
	??E?$_Tree_unchecked_const_iterator@V?$_Tree_val@U?$_Tree_simple_types@U?$pair@$$CBV?$basic_string@DU?$char_traits@D@std@@V?$allocator@D@2@@std@@V?$shared_ptr@VJointMimic@urdf@@@2@@std@@@std@@@std@@U_Iterator_base0@2@@std@@QEAAAEAV01@XZ
	??E?$_Vector_const_iterator@V?$_Vector_val@U?$_Simple_types@V?$basic_string@DU?$char_traits@D@std@@V?$allocator@D@2@@std@@@std@@@std@@@std@@QEAAAEAV01@XZ
	??E?$_Vector_iterator@V?$_Vector_val@U?$_Simple_types@V?$basic_string@DU?$char_traits@D@std@@V?$allocator@D@2@@std@@@std@@@std@@@std@@QEAAAEAV01@XZ
	??R<lambda_66f57f934f28d61049862f64df852ff0>@@QEBAXQEAD_KQEBD@Z
	??R?$DefaultMessageCreator@U?$JointState_@V?$allocator@X@std@@@sensor_msgs@@@ros@@QEAA?AV?$shared_ptr@U?$JointState_@V?$allocator@X@std@@@sensor_msgs@@@boost@@XZ
	??R?$function0@V?$shared_ptr@U?$JointState_@V?$allocator@X@std@@@sensor_msgs@@@boost@@@boost@@QEBA?AV?$shared_ptr@U?$JointState_@V?$allocator@X@std@@@sensor_msgs@@@1@XZ
	??R?$function1@XAEBV?$shared_ptr@$$CBU?$JointState_@V?$allocator@X@std@@@sensor_msgs@@@boost@@@boost@@QEBAXAEBV?$shared_ptr@$$CBU?$JointState_@V?$allocator@X@std@@@sensor_msgs@@@1@@Z
	??R?$function1@XV?$shared_ptr@$$CBU?$JointState_@V?$allocator@X@std@@@sensor_msgs@@@boost@@@boost@@QEBAXV?$shared_ptr@$$CBU?$JointState_@V?$allocator@X@std@@@sensor_msgs@@@1@@Z
	??R?$less@V?$basic_string@DU?$char_traits@D@std@@V?$allocator@D@2@@std@@@std@@QEBA_NAEBV?$basic_string@DU?$char_traits@D@std@@V?$allocator@D@2@@1@0@Z
	??R?$mf1@XVJointStateListener@robot_state_publisher@@AEBUTimerEvent@ros@@@_mfi@boost@@QEBAXPEAVJointStateListener@robot_state_publisher@@AEBUTimerEvent@ros@@@Z
	??R?$mf1@XVJointStateListener@robot_state_publisher@@AEBV?$shared_ptr@$$CBU?$JointState_@V?$allocator@X@std@@@sensor_msgs@@@boost@@@_mfi@boost@@QEBAXPEAVJointStateListener@robot_state_publisher@@AEBV?$shared_ptr@$$CBU?$JointState_@V?$allocator@X@std@@@sensor_msgs@@@2@@Z
	??R?$sp_ms_deleter@U?$JointState_@V?$allocator@X@std@@@sensor_msgs@@@detail@boost@@QEAAXPEAU?$JointState_@V?$allocator@X@std@@@sensor_msgs@@@Z
	??R?$sp_ms_deleter@V?$SubscriptionCallbackHelperT@AEBV?$shared_ptr@$$CBU?$JointState_@V?$allocator@X@std@@@sensor_msgs@@@boost@@X@ros@@@detail@boost@@QEAAXPEAV?$SubscriptionCallbackHelperT@AEBV?$shared_ptr@$$CBU?$JointState_@V?$allocator@X@std@@@sensor_msgs@@@boost@@X@ros@@@Z
	??_9JointStateListener@robot_state_publisher@@$B7AA
	??_9JointStateListener@robot_state_publisher@@$BA@AA
	??_D?$clone_impl@U?$error_info_injector@Vbad_function_call@boost@@@exception_detail@boost@@@exception_detail@boost@@QEAAXXZ
	??_H@YAXPEAX_K1P6APEAX0@Z@Z
	?_Adjust_manually_vector_aligned@std@@YAXAEAPEAXAEA_K@Z
	?_Adopt@_Iterator_base0@std@@QEAAXPEBX@Z
	?_Alloc_proxy@_Container_base0@std@@QEAAXAEBU_Fake_allocator@2@@Z
	?_Alloc_sentinel_and_proxy@?$_Tree@V?$_Tmap_traits@V?$basic_string@DU?$char_traits@D@std@@V?$allocator@D@2@@std@@NU?$less@V?$basic_string@DU?$char_traits@D@std@@V?$allocator@D@2@@std@@@2@V?$allocator@U?$pair@$$CBV?$basic_string@DU?$char_traits@D@std@@V?$allocator@D@2@@std@@N@std@@@2@$0A@@std@@@std@@IEAAXXZ
	?_Alloc_sentinel_and_proxy@?$_Tree@V?$_Tmap_traits@V?$basic_string@DU?$char_traits@D@std@@V?$allocator@D@2@@std@@V12@U?$less@V?$basic_string@DU?$char_traits@D@std@@V?$allocator@D@2@@std@@@2@V?$allocator@U?$pair@$$CBV?$basic_string@DU?$char_traits@D@std@@V?$allocator@D@2@@std@@V12@@std@@@2@$0A@@std@@@std@@IEAAXXZ
	?_Alloc_sentinel_and_proxy@?$_Tree@V?$_Tmap_traits@V?$basic_string@DU?$char_traits@D@std@@V?$allocator@D@2@@std@@V?$shared_ptr@VJoint@urdf@@@2@U?$less@V?$basic_string@DU?$char_traits@D@std@@V?$allocator@D@2@@std@@@2@V?$allocator@U?$pair@$$CBV?$basic_string@DU?$char_traits@D@std@@V?$allocator@D@2@@std@@V?$shared_ptr@VJoint@urdf@@@2@@std@@@2@$0A@@std@@@std@@IEAAXXZ
	?_Alloc_sentinel_and_proxy@?$_Tree@V?$_Tmap_traits@V?$basic_string@DU?$char_traits@D@std@@V?$allocator@D@2@@std@@V?$shared_ptr@VJointMimic@urdf@@@2@U?$less@V?$basic_string@DU?$char_traits@D@std@@V?$allocator@D@2@@std@@@2@V?$allocator@U?$pair@$$CBV?$basic_string@DU?$char_traits@D@std@@V?$allocator@D@2@@std@@V?$shared_ptr@VJointMimic@urdf@@@2@@std@@@2@$0A@@std@@@std@@IEAAXXZ
	?_Alloc_sentinel_and_proxy@?$_Tree@V?$_Tmap_traits@V?$basic_string@DU?$char_traits@D@std@@V?$allocator@D@2@@std@@V?$shared_ptr@VLink@urdf@@@2@U?$less@V?$basic_string@DU?$char_traits@D@std@@V?$allocator@D@2@@std@@@2@V?$allocator@U?$pair@$$CBV?$basic_string@DU?$char_traits@D@std@@V?$allocator@D@2@@std@@V?$shared_ptr@VLink@urdf@@@2@@std@@@2@$0A@@std@@@std@@IEAAXXZ
	?_Alloc_sentinel_and_proxy@?$_Tree@V?$_Tmap_traits@V?$basic_string@DU?$char_traits@D@std@@V?$allocator@D@2@@std@@V?$shared_ptr@VMaterial@urdf@@@2@U?$less@V?$basic_string@DU?$char_traits@D@std@@V?$allocator@D@2@@std@@@2@V?$allocator@U?$pair@$$CBV?$basic_string@DU?$char_traits@D@std@@V?$allocator@D@2@@std@@V?$shared_ptr@VMaterial@urdf@@@2@@std@@@2@$0A@@std@@@std@@IEAAXXZ
	?_Alloc_sentinel_and_proxy@?$_Tree@V?$_Tmap_traits@V?$basic_string@DU?$char_traits@D@std@@V?$allocator@D@2@@std@@VTime@ros@@U?$less@V?$basic_string@DU?$char_traits@D@std@@V?$allocator@D@2@@std@@@2@V?$allocator@U?$pair@$$CBV?$basic_string@DU?$char_traits@D@std@@V?$allocator@D@2@@std@@VTime@ros@@@std@@@2@$0A@@std@@@std@@IEAAXXZ
	?_Allocate@?$_Alloc_construct_ptr@V?$allocator@U?$_Tree_node@U?$pair@$$CBV?$basic_string@DU?$char_traits@D@std@@V?$allocator@D@2@@std@@N@std@@PEAX@std@@@std@@@std@@QEAAXXZ
	?_Allocate@?$_Alloc_construct_ptr@V?$allocator@U?$_Tree_node@U?$pair@$$CBV?$basic_string@DU?$char_traits@D@std@@V?$allocator@D@2@@std@@V?$shared_ptr@VJointMimic@urdf@@@2@@std@@PEAX@std@@@std@@@std@@QEAAXXZ
	?_Allocate@?$_Alloc_construct_ptr@V?$allocator@U?$_Tree_node@U?$pair@$$CBV?$basic_string@DU?$char_traits@D@std@@V?$allocator@D@2@@std@@VTime@ros@@@std@@PEAX@std@@@std@@@std@@QEAAXXZ
	?_Allocate@_Default_allocate_traits@std@@SAPEAX_K@Z
	?_Buy_raw@?$vector@NV?$allocator@N@std@@@std@@AEAAX_K@Z
	?_Buy_raw@?$vector@V?$basic_string@DU?$char_traits@D@std@@V?$allocator@D@2@@std@@V?$allocator@V?$basic_string@DU?$char_traits@D@std@@V?$allocator@D@2@@std@@@2@@std@@AEAAX_K@Z
	?_Calculate_growth@?$basic_string@DU?$char_traits@D@std@@V?$allocator@D@2@@std@@AEBA_K_K@Z
	?_Calculate_growth@?$basic_string@DU?$char_traits@D@std@@V?$allocator@D@2@@std@@CA_K_K00@Z
	?_Calculate_growth@?$vector@NV?$allocator@N@std@@@std@@AEBA_K_K@Z
	?_Calculate_growth@?$vector@V?$basic_string@DU?$char_traits@D@std@@V?$allocator@D@2@@std@@V?$allocator@V?$basic_string@DU?$char_traits@D@std@@V?$allocator@D@2@@std@@@2@@std@@AEBA_K_K@Z
	?_Change_array@?$vector@NV?$allocator@N@std@@@std@@AEAAXQEAN_K1@Z
	?_Change_array@?$vector@V?$basic_string@DU?$char_traits@D@std@@V?$allocator@D@2@@std@@V?$allocator@V?$basic_string@DU?$char_traits@D@std@@V?$allocator@D@2@@std@@@2@@std@@AEAAXQEAV?$basic_string@DU?$char_traits@D@std@@V?$allocator@D@2@@2@_K1@Z
	?_Check_grow_by_1@?$_Tree@V?$_Tmap_traits@V?$basic_string@DU?$char_traits@D@std@@V?$allocator@D@2@@std@@NU?$less@V?$basic_string@DU?$char_traits@D@std@@V?$allocator@D@2@@std@@@2@V?$allocator@U?$pair@$$CBV?$basic_string@DU?$char_traits@D@std@@V?$allocator@D@2@@std@@N@std@@@2@$0A@@std@@@std@@IEAAXXZ
	?_Check_grow_by_1@?$_Tree@V?$_Tmap_traits@V?$basic_string@DU?$char_traits@D@std@@V?$allocator@D@2@@std@@V?$shared_ptr@VJointMimic@urdf@@@2@U?$less@V?$basic_string@DU?$char_traits@D@std@@V?$allocator@D@2@@std@@@2@V?$allocator@U?$pair@$$CBV?$basic_string@DU?$char_traits@D@std@@V?$allocator@D@2@@std@@V?$shared_ptr@VJointMimic@urdf@@@2@@std@@@2@$0A@@std@@@std@@IEAAXXZ
	?_Check_grow_by_1@?$_Tree@V?$_Tmap_traits@V?$basic_string@DU?$char_traits@D@std@@V?$allocator@D@2@@std@@VTime@ros@@U?$less@V?$basic_string@DU?$char_traits@D@std@@V?$allocator@D@2@@std@@@2@V?$allocator@U?$pair@$$CBV?$basic_string@DU?$char_traits@D@std@@V?$allocator@D@2@@std@@VTime@ros@@@std@@@2@$0A@@std@@@std@@IEAAXXZ
	?_Check_memory_order@std@@YAXW4memory_order@1@@Z
	?_Check_offset@?$_String_val@U?$_Simple_types@D@std@@@std@@QEBAX_K@Z
	?_Clamp_suffix_size@?$_String_val@U?$_Simple_types@D@std@@@std@@QEBA_K_K0@Z
	?_Clear_and_reserve_geometric@?$vector@NV?$allocator@N@std@@@std@@AEAAX_K@Z
	?_Clear_and_reserve_geometric@?$vector@V?$basic_string@DU?$char_traits@D@std@@V?$allocator@D@2@@std@@V?$allocator@V?$basic_string@DU?$char_traits@D@std@@V?$allocator@D@2@@std@@@2@@std@@AEAAX_K@Z
	?_Compat@?$_Vector_const_iterator@V?$_Vector_val@U?$_Simple_types@V?$basic_string@DU?$char_traits@D@std@@V?$allocator@D@2@@std@@@std@@@std@@@std@@QEBAXAEBV12@@Z
	?_Construct_lv_contents@?$basic_string@DU?$char_traits@D@std@@V?$allocator@D@2@@std@@AEAAXAEBV12@@Z
	?_Copy_assign@?$basic_string@DU?$char_traits@D@std@@V?$allocator@D@2@@std@@AEAAXAEBV12@U?$integral_constant@_N$0A@@2@@Z
	?_Copy_assign@?$vector@NV?$allocator@N@std@@@std@@AEAAXAEBV12@U?$integral_constant@_N$0A@@2@@Z
	?_Copy_assign@?$vector@V?$basic_string@DU?$char_traits@D@std@@V?$allocator@D@2@@std@@V?$allocator@V?$basic_string@DU?$char_traits@D@std@@V?$allocator@D@2@@std@@@2@@std@@AEAAXAEBV12@U?$integral_constant@_N$0A@@2@@Z
	?_Decref@?$_Ptr_base@VJoint@urdf@@@std@@IEAAXXZ
	?_Decref@?$_Ptr_base@VJointMimic@urdf@@@std@@IEAAXXZ
	?_Decref@?$_Ptr_base@VLink@urdf@@@std@@IEAAXXZ
	?_Decref@?$_Ptr_base@VMaterial@urdf@@@std@@IEAAXXZ
	?_Decref@_Ref_count_base@std@@QEAAXXZ
	?_Decwref@_Ref_count_base@std@@QEAAXXZ
	?_Destroy@?$vector@NV?$allocator@N@std@@@std@@AEAAXPEAN0@Z
	?_Destroy@?$vector@U?$TransformStamped_@V?$allocator@X@std@@@geometry_msgs@@V?$allocator@U?$TransformStamped_@V?$allocator@X@std@@@geometry_msgs@@@std@@@std@@AEAAXPEAU?$TransformStamped_@V?$allocator@X@std@@@geometry_msgs@@0@Z
	?_Destroy@?$vector@V?$_Tree_const_iterator@V?$_Tree_val@U?$_Tree_simple_types@U?$pair@$$CBV?$basic_string@DU?$char_traits@D@std@@V?$allocator@D@2@@std@@VTreeElement@KDL@@@std@@@std@@@std@@@std@@V?$allocator@V?$_Tree_const_iterator@V?$_Tree_val@U?$_Tree_simple_types@U?$pair@$$CBV?$basic_string@DU?$char_traits@D@std@@V?$allocator@D@2@@std@@VTreeElement@KDL@@@std@@@std@@@std@@@std@@@2@@std@@AEAAXPEAV?$_Tree_const_iterator@V?$_Tree_val@U?$_Tree_simple_types@U?$pair@$$CBV?$basic_string@DU?$char_traits@D@std@@V?$allocator@D@2@@std@@VTreeElement@KDL@@@std@@@std@@@std@@@2@0@Z
	?_Destroy@?$vector@V?$basic_string@DU?$char_traits@D@std@@V?$allocator@D@2@@std@@V?$allocator@V?$basic_string@DU?$char_traits@D@std@@V?$allocator@D@2@@std@@@2@@std@@AEAAXPEAV?$basic_string@DU?$char_traits@D@std@@V?$allocator@D@2@@2@0@Z
	?_Eos@?$basic_string@DU?$char_traits@D@std@@V?$allocator@D@2@@std@@AEAAX_K@Z
	?_Equal@?$basic_string@DU?$char_traits@D@std@@V?$allocator@D@2@@std@@QEBA_NQEBD@Z
	?_Extract@?$_In_place_key_extract_map@V?$basic_string@DU?$char_traits@D@std@@V?$allocator@D@2@@std@@U?$pair@V?$basic_string@DU?$char_traits@D@std@@V?$allocator@D@2@@std@@N@2@@std@@SAAEBV?$basic_string@DU?$char_traits@D@std@@V?$allocator@D@2@@2@AEBU?$pair@V?$basic_string@DU?$char_traits@D@std@@V?$allocator@D@2@@std@@N@2@@Z
	?_Extract@?$_In_place_key_extract_map@V?$basic_string@DU?$char_traits@D@std@@V?$allocator@D@2@@std@@U?$pair@V?$basic_string@DU?$char_traits@D@std@@V?$allocator@D@2@@std@@V?$shared_ptr@VJointMimic@urdf@@@2@@2@@std@@SAAEBV?$basic_string@DU?$char_traits@D@std@@V?$allocator@D@2@@2@AEBU?$pair@V?$basic_string@DU?$char_traits@D@std@@V?$allocator@D@2@@std@@V?$shared_ptr@VJointMimic@urdf@@@2@@2@@Z
	?_Get_first@?$_Compressed_pair@U?$less@V?$basic_string@DU?$char_traits@D@std@@V?$allocator@D@2@@std@@@std@@V?$_Compressed_pair@V?$allocator@U?$_Tree_node@U?$pair@$$CBV?$basic_string@DU?$char_traits@D@std@@V?$allocator@D@2@@std@@N@std@@PEAX@std@@@std@@V?$_Tree_val@U?$_Tree_simple_types@U?$pair@$$CBV?$basic_string@DU?$char_traits@D@std@@V?$allocator@D@2@@std@@N@std@@@std@@@2@$00@2@$00@std@@QEBAAEBU?$less@V?$basic_string@DU?$char_traits@D@std@@V?$allocator@D@2@@std@@@2@XZ
	?_Get_first@?$_Compressed_pair@U?$less@V?$basic_string@DU?$char_traits@D@std@@V?$allocator@D@2@@std@@@std@@V?$_Compressed_pair@V?$allocator@U?$_Tree_node@U?$pair@$$CBV?$basic_string@DU?$char_traits@D@std@@V?$allocator@D@2@@std@@V?$shared_ptr@VJointMimic@urdf@@@2@@std@@PEAX@std@@@std@@V?$_Tree_val@U?$_Tree_simple_types@U?$pair@$$CBV?$basic_string@DU?$char_traits@D@std@@V?$allocator@D@2@@std@@V?$shared_ptr@VJointMimic@urdf@@@2@@std@@@std@@@2@$00@2@$00@std@@QEBAAEBU?$less@V?$basic_string@DU?$char_traits@D@std@@V?$allocator@D@2@@std@@@2@XZ
	?_Get_first@?$_Compressed_pair@U?$less@V?$basic_string@DU?$char_traits@D@std@@V?$allocator@D@2@@std@@@std@@V?$_Compressed_pair@V?$allocator@U?$_Tree_node@U?$pair@$$CBV?$basic_string@DU?$char_traits@D@std@@V?$allocator@D@2@@std@@VTime@ros@@@std@@PEAX@std@@@std@@V?$_Tree_val@U?$_Tree_simple_types@U?$pair@$$CBV?$basic_string@DU?$char_traits@D@std@@V?$allocator@D@2@@std@@VTime@ros@@@std@@@std@@@2@$00@2@$00@std@@QEBAAEBU?$less@V?$basic_string@DU?$char_traits@D@std@@V?$allocator@D@2@@std@@@2@XZ
	?_Get_first@?$_Compressed_pair@V?$allocator@D@std@@V?$_String_val@U?$_Simple_types@D@std@@@2@$00@std@@QEAAAEAV?$allocator@D@2@XZ
	?_Get_first@?$_Compressed_pair@V?$allocator@D@std@@V?$_String_val@U?$_Simple_types@D@std@@@2@$00@std@@QEBAAEBV?$allocator@D@2@XZ
	?_Get_first@?$_Compressed_pair@V?$allocator@N@std@@V?$_Vector_val@U?$_Simple_types@N@std@@@2@$00@std@@QEAAAEAV?$allocator@N@2@XZ
	?_Get_first@?$_Compressed_pair@V?$allocator@N@std@@V?$_Vector_val@U?$_Simple_types@N@std@@@2@$00@std@@QEBAAEBV?$allocator@N@2@XZ
	?_Get_first@?$_Compressed_pair@V?$allocator@U?$TransformStamped_@V?$allocator@X@std@@@geometry_msgs@@@std@@V?$_Vector_val@U?$_Simple_types@U?$TransformStamped_@V?$allocator@X@std@@@geometry_msgs@@@std@@@2@$00@std@@QEAAAEAV?$allocator@U?$TransformStamped_@V?$allocator@X@std@@@geometry_msgs@@@2@XZ
	?_Get_first@?$_Compressed_pair@V?$allocator@U?$_Tree_node@U?$pair@$$CBV?$basic_string@DU?$char_traits@D@std@@V?$allocator@D@2@@std@@N@std@@PEAX@std@@@std@@V?$_Tree_val@U?$_Tree_simple_types@U?$pair@$$CBV?$basic_string@DU?$char_traits@D@std@@V?$allocator@D@2@@std@@N@std@@@std@@@2@$00@std@@QEAAAEAV?$allocator@U?$_Tree_node@U?$pair@$$CBV?$basic_string@DU?$char_traits@D@std@@V?$allocator@D@2@@std@@N@std@@PEAX@std@@@2@XZ
	?_Get_first@?$_Compressed_pair@V?$allocator@U?$_Tree_node@U?$pair@$$CBV?$basic_string@DU?$char_traits@D@std@@V?$allocator@D@2@@std@@N@std@@PEAX@std@@@std@@V?$_Tree_val@U?$_Tree_simple_types@U?$pair@$$CBV?$basic_string@DU?$char_traits@D@std@@V?$allocator@D@2@@std@@N@std@@@std@@@2@$00@std@@QEBAAEBV?$allocator@U?$_Tree_node@U?$pair@$$CBV?$basic_string@DU?$char_traits@D@std@@V?$allocator@D@2@@std@@N@std@@PEAX@std@@@2@XZ
	?_Get_first@?$_Compressed_pair@V?$allocator@U?$_Tree_node@U?$pair@$$CBV?$basic_string@DU?$char_traits@D@std@@V?$allocator@D@2@@std@@V12@@std@@PEAX@std@@@std@@V?$_Tree_val@U?$_Tree_simple_types@U?$pair@$$CBV?$basic_string@DU?$char_traits@D@std@@V?$allocator@D@2@@std@@V12@@std@@@std@@@2@$00@std@@QEAAAEAV?$allocator@U?$_Tree_node@U?$pair@$$CBV?$basic_string@DU?$char_traits@D@std@@V?$allocator@D@2@@std@@V12@@std@@PEAX@std@@@2@XZ
	?_Get_first@?$_Compressed_pair@V?$allocator@U?$_Tree_node@U?$pair@$$CBV?$basic_string@DU?$char_traits@D@std@@V?$allocator@D@2@@std@@V?$shared_ptr@VJoint@urdf@@@2@@std@@PEAX@std@@@std@@V?$_Tree_val@U?$_Tree_simple_types@U?$pair@$$CBV?$basic_string@DU?$char_traits@D@std@@V?$allocator@D@2@@std@@V?$shared_ptr@VJoint@urdf@@@2@@std@@@std@@@2@$00@std@@QEAAAEAV?$allocator@U?$_Tree_node@U?$pair@$$CBV?$basic_string@DU?$char_traits@D@std@@V?$allocator@D@2@@std@@V?$shared_ptr@VJoint@urdf@@@2@@std@@PEAX@std@@@2@XZ
	?_Get_first@?$_Compressed_pair@V?$allocator@U?$_Tree_node@U?$pair@$$CBV?$basic_string@DU?$char_traits@D@std@@V?$allocator@D@2@@std@@V?$shared_ptr@VJointMimic@urdf@@@2@@std@@PEAX@std@@@std@@V?$_Tree_val@U?$_Tree_simple_types@U?$pair@$$CBV?$basic_string@DU?$char_traits@D@std@@V?$allocator@D@2@@std@@V?$shared_ptr@VJointMimic@urdf@@@2@@std@@@std@@@2@$00@std@@QEAAAEAV?$allocator@U?$_Tree_node@U?$pair@$$CBV?$basic_string@DU?$char_traits@D@std@@V?$allocator@D@2@@std@@V?$shared_ptr@VJointMimic@urdf@@@2@@std@@PEAX@std@@@2@XZ
	?_Get_first@?$_Compressed_pair@V?$allocator@U?$_Tree_node@U?$pair@$$CBV?$basic_string@DU?$char_traits@D@std@@V?$allocator@D@2@@std@@V?$shared_ptr@VJointMimic@urdf@@@2@@std@@PEAX@std@@@std@@V?$_Tree_val@U?$_Tree_simple_types@U?$pair@$$CBV?$basic_string@DU?$char_traits@D@std@@V?$allocator@D@2@@std@@V?$shared_ptr@VJointMimic@urdf@@@2@@std@@@std@@@2@$00@std@@QEBAAEBV?$allocator@U?$_Tree_node@U?$pair@$$CBV?$basic_string@DU?$char_traits@D@std@@V?$allocator@D@2@@std@@V?$shared_ptr@VJointMimic@urdf@@@2@@std@@PEAX@std@@@2@XZ
	?_Get_first@?$_Compressed_pair@V?$allocator@U?$_Tree_node@U?$pair@$$CBV?$basic_string@DU?$char_traits@D@std@@V?$allocator@D@2@@std@@V?$shared_ptr@VLink@urdf@@@2@@std@@PEAX@std@@@std@@V?$_Tree_val@U?$_Tree_simple_types@U?$pair@$$CBV?$basic_string@DU?$char_traits@D@std@@V?$allocator@D@2@@std@@V?$shared_ptr@VLink@urdf@@@2@@std@@@std@@@2@$00@std@@QEAAAEAV?$allocator@U?$_Tree_node@U?$pair@$$CBV?$basic_string@DU?$char_traits@D@std@@V?$allocator@D@2@@std@@V?$shared_ptr@VLink@urdf@@@2@@std@@PEAX@std@@@2@XZ
	?_Get_first@?$_Compressed_pair@V?$allocator@U?$_Tree_node@U?$pair@$$CBV?$basic_string@DU?$char_traits@D@std@@V?$allocator@D@2@@std@@V?$shared_ptr@VMaterial@urdf@@@2@@std@@PEAX@std@@@std@@V?$_Tree_val@U?$_Tree_simple_types@U?$pair@$$CBV?$basic_string@DU?$char_traits@D@std@@V?$allocator@D@2@@std@@V?$shared_ptr@VMaterial@urdf@@@2@@std@@@std@@@2@$00@std@@QEAAAEAV?$allocator@U?$_Tree_node@U?$pair@$$CBV?$basic_string@DU?$char_traits@D@std@@V?$allocator@D@2@@std@@V?$shared_ptr@VMaterial@urdf@@@2@@std@@PEAX@std@@@2@XZ
	?_Get_first@?$_Compressed_pair@V?$allocator@U?$_Tree_node@U?$pair@$$CBV?$basic_string@DU?$char_traits@D@std@@V?$allocator@D@2@@std@@VSegmentPair@robot_state_publisher@@@std@@PEAX@std@@@std@@V?$_Tree_val@U?$_Tree_simple_types@U?$pair@$$CBV?$basic_string@DU?$char_traits@D@std@@V?$allocator@D@2@@std@@VSegmentPair@robot_state_publisher@@@std@@@std@@@2@$00@std@@QEAAAEAV?$allocator@U?$_Tree_node@U?$pair@$$CBV?$basic_string@DU?$char_traits@D@std@@V?$allocator@D@2@@std@@VSegmentPair@robot_state_publisher@@@std@@PEAX@std@@@2@XZ
	?_Get_first@?$_Compressed_pair@V?$allocator@U?$_Tree_node@U?$pair@$$CBV?$basic_string@DU?$char_traits@D@std@@V?$allocator@D@2@@std@@VTime@ros@@@std@@PEAX@std@@@std@@V?$_Tree_val@U?$_Tree_simple_types@U?$pair@$$CBV?$basic_string@DU?$char_traits@D@std@@V?$allocator@D@2@@std@@VTime@ros@@@std@@@std@@@2@$00@std@@QEAAAEAV?$allocator@U?$_Tree_node@U?$pair@$$CBV?$basic_string@DU?$char_traits@D@std@@V?$allocator@D@2@@std@@VTime@ros@@@std@@PEAX@std@@@2@XZ
	?_Get_first@?$_Compressed_pair@V?$allocator@U?$_Tree_node@U?$pair@$$CBV?$basic_string@DU?$char_traits@D@std@@V?$allocator@D@2@@std@@VTime@ros@@@std@@PEAX@std@@@std@@V?$_Tree_val@U?$_Tree_simple_types@U?$pair@$$CBV?$basic_string@DU?$char_traits@D@std@@V?$allocator@D@2@@std@@VTime@ros@@@std@@@std@@@2@$00@std@@QEBAAEBV?$allocator@U?$_Tree_node@U?$pair@$$CBV?$basic_string@DU?$char_traits@D@std@@V?$allocator@D@2@@std@@VTime@ros@@@std@@PEAX@std@@@2@XZ
	?_Get_first@?$_Compressed_pair@V?$allocator@U?$_Tree_node@U?$pair@$$CBV?$basic_string@DU?$char_traits@D@std@@V?$allocator@D@2@@std@@VTreeElement@KDL@@@std@@PEAX@std@@@std@@V?$_Tree_val@U?$_Tree_simple_types@U?$pair@$$CBV?$basic_string@DU?$char_traits@D@std@@V?$allocator@D@2@@std@@VTreeElement@KDL@@@std@@@std@@@2@$00@std@@QEAAAEAV?$allocator@U?$_Tree_node@U?$pair@$$CBV?$basic_string@DU?$char_traits@D@std@@V?$allocator@D@2@@std@@VTreeElement@KDL@@@std@@PEAX@std@@@2@XZ
	?_Get_first@?$_Compressed_pair@V?$allocator@V?$_Tree_const_iterator@V?$_Tree_val@U?$_Tree_simple_types@U?$pair@$$CBV?$basic_string@DU?$char_traits@D@std@@V?$allocator@D@2@@std@@VTreeElement@KDL@@@std@@@std@@@std@@@std@@@std@@V?$_Vector_val@U?$_Simple_types@V?$_Tree_const_iterator@V?$_Tree_val@U?$_Tree_simple_types@U?$pair@$$CBV?$basic_string@DU?$char_traits@D@std@@V?$allocator@D@2@@std@@VTreeElement@KDL@@@std@@@std@@@std@@@std@@@std@@@2@$00@std@@QEAAAEAV?$allocator@V?$_Tree_const_iterator@V?$_Tree_val@U?$_Tree_simple_types@U?$pair@$$CBV?$basic_string@DU?$char_traits@D@std@@V?$allocator@D@2@@std@@VTreeElement@KDL@@@std@@@std@@@std@@@std@@@2@XZ
	?_Get_first@?$_Compressed_pair@V?$allocator@V?$basic_string@DU?$char_traits@D@std@@V?$allocator@D@2@@std@@@std@@V?$_Vector_val@U?$_Simple_types@V?$basic_string@DU?$char_traits@D@std@@V?$allocator@D@2@@std@@@std@@@2@$00@std@@QEAAAEAV?$allocator@V?$basic_string@DU?$char_traits@D@std@@V?$allocator@D@2@@std@@@2@XZ
	?_Get_first@?$_Compressed_pair@V?$allocator@V?$basic_string@DU?$char_traits@D@std@@V?$allocator@D@2@@std@@@std@@V?$_Vector_val@U?$_Simple_types@V?$basic_string@DU?$char_traits@D@std@@V?$allocator@D@2@@std@@@std@@@2@$00@std@@QEBAAEBV?$allocator@V?$basic_string@DU?$char_traits@D@std@@V?$allocator@D@2@@std@@@2@XZ
	?_Get_scary@?$_Tree@V?$_Tmap_traits@V?$basic_string@DU?$char_traits@D@std@@V?$allocator@D@2@@std@@NU?$less@V?$basic_string@DU?$char_traits@D@std@@V?$allocator@D@2@@std@@@2@V?$allocator@U?$pair@$$CBV?$basic_string@DU?$char_traits@D@std@@V?$allocator@D@2@@std@@N@std@@@2@$0A@@std@@@std@@IEAAPEAV?$_Tree_val@U?$_Tree_simple_types@U?$pair@$$CBV?$basic_string@DU?$char_traits@D@std@@V?$allocator@D@2@@std@@N@std@@@std@@@2@XZ
	?_Get_scary@?$_Tree@V?$_Tmap_traits@V?$basic_string@DU?$char_traits@D@std@@V?$allocator@D@2@@std@@NU?$less@V?$basic_string@DU?$char_traits@D@std@@V?$allocator@D@2@@std@@@2@V?$allocator@U?$pair@$$CBV?$basic_string@DU?$char_traits@D@std@@V?$allocator@D@2@@std@@N@std@@@2@$0A@@std@@@std@@IEBAPEBV?$_Tree_val@U?$_Tree_simple_types@U?$pair@$$CBV?$basic_string@DU?$char_traits@D@std@@V?$allocator@D@2@@std@@N@std@@@std@@@2@XZ
	?_Get_scary@?$_Tree@V?$_Tmap_traits@V?$basic_string@DU?$char_traits@D@std@@V?$allocator@D@2@@std@@V12@U?$less@V?$basic_string@DU?$char_traits@D@std@@V?$allocator@D@2@@std@@@2@V?$allocator@U?$pair@$$CBV?$basic_string@DU?$char_traits@D@std@@V?$allocator@D@2@@std@@V12@@std@@@2@$0A@@std@@@std@@IEAAPEAV?$_Tree_val@U?$_Tree_simple_types@U?$pair@$$CBV?$basic_string@DU?$char_traits@D@std@@V?$allocator@D@2@@std@@V12@@std@@@std@@@2@XZ
	?_Get_scary@?$_Tree@V?$_Tmap_traits@V?$basic_string@DU?$char_traits@D@std@@V?$allocator@D@2@@std@@V?$shared_ptr@VJoint@urdf@@@2@U?$less@V?$basic_string@DU?$char_traits@D@std@@V?$allocator@D@2@@std@@@2@V?$allocator@U?$pair@$$CBV?$basic_string@DU?$char_traits@D@std@@V?$allocator@D@2@@std@@V?$shared_ptr@VJoint@urdf@@@2@@std@@@2@$0A@@std@@@std@@IEAAPEAV?$_Tree_val@U?$_Tree_simple_types@U?$pair@$$CBV?$basic_string@DU?$char_traits@D@std@@V?$allocator@D@2@@std@@V?$shared_ptr@VJoint@urdf@@@2@@std@@@std@@@2@XZ
	?_Get_scary@?$_Tree@V?$_Tmap_traits@V?$basic_string@DU?$char_traits@D@std@@V?$allocator@D@2@@std@@V?$shared_ptr@VJointMimic@urdf@@@2@U?$less@V?$basic_string@DU?$char_traits@D@std@@V?$allocator@D@2@@std@@@2@V?$allocator@U?$pair@$$CBV?$basic_string@DU?$char_traits@D@std@@V?$allocator@D@2@@std@@V?$shared_ptr@VJointMimic@urdf@@@2@@std@@@2@$0A@@std@@@std@@IEAAPEAV?$_Tree_val@U?$_Tree_simple_types@U?$pair@$$CBV?$basic_string@DU?$char_traits@D@std@@V?$allocator@D@2@@std@@V?$shared_ptr@VJointMimic@urdf@@@2@@std@@@std@@@2@XZ
	?_Get_scary@?$_Tree@V?$_Tmap_traits@V?$basic_string@DU?$char_traits@D@std@@V?$allocator@D@2@@std@@V?$shared_ptr@VJointMimic@urdf@@@2@U?$less@V?$basic_string@DU?$char_traits@D@std@@V?$allocator@D@2@@std@@@2@V?$allocator@U?$pair@$$CBV?$basic_string@DU?$char_traits@D@std@@V?$allocator@D@2@@std@@V?$shared_ptr@VJointMimic@urdf@@@2@@std@@@2@$0A@@std@@@std@@IEBAPEBV?$_Tree_val@U?$_Tree_simple_types@U?$pair@$$CBV?$basic_string@DU?$char_traits@D@std@@V?$allocator@D@2@@std@@V?$shared_ptr@VJointMimic@urdf@@@2@@std@@@std@@@2@XZ
	?_Get_scary@?$_Tree@V?$_Tmap_traits@V?$basic_string@DU?$char_traits@D@std@@V?$allocator@D@2@@std@@V?$shared_ptr@VLink@urdf@@@2@U?$less@V?$basic_string@DU?$char_traits@D@std@@V?$allocator@D@2@@std@@@2@V?$allocator@U?$pair@$$CBV?$basic_string@DU?$char_traits@D@std@@V?$allocator@D@2@@std@@V?$shared_ptr@VLink@urdf@@@2@@std@@@2@$0A@@std@@@std@@IEAAPEAV?$_Tree_val@U?$_Tree_simple_types@U?$pair@$$CBV?$basic_string@DU?$char_traits@D@std@@V?$allocator@D@2@@std@@V?$shared_ptr@VLink@urdf@@@2@@std@@@std@@@2@XZ
	?_Get_scary@?$_Tree@V?$_Tmap_traits@V?$basic_string@DU?$char_traits@D@std@@V?$allocator@D@2@@std@@V?$shared_ptr@VMaterial@urdf@@@2@U?$less@V?$basic_string@DU?$char_traits@D@std@@V?$allocator@D@2@@std@@@2@V?$allocator@U?$pair@$$CBV?$basic_string@DU?$char_traits@D@std@@V?$allocator@D@2@@std@@V?$shared_ptr@VMaterial@urdf@@@2@@std@@@2@$0A@@std@@@std@@IEAAPEAV?$_Tree_val@U?$_Tree_simple_types@U?$pair@$$CBV?$basic_string@DU?$char_traits@D@std@@V?$allocator@D@2@@std@@V?$shared_ptr@VMaterial@urdf@@@2@@std@@@std@@@2@XZ
	?_Get_scary@?$_Tree@V?$_Tmap_traits@V?$basic_string@DU?$char_traits@D@std@@V?$allocator@D@2@@std@@VSegmentPair@robot_state_publisher@@U?$less@V?$basic_string@DU?$char_traits@D@std@@V?$allocator@D@2@@std@@@2@V?$allocator@U?$pair@$$CBV?$basic_string@DU?$char_traits@D@std@@V?$allocator@D@2@@std@@VSegmentPair@robot_state_publisher@@@std@@@2@$0A@@std@@@std@@IEAAPEAV?$_Tree_val@U?$_Tree_simple_types@U?$pair@$$CBV?$basic_string@DU?$char_traits@D@std@@V?$allocator@D@2@@std@@VSegmentPair@robot_state_publisher@@@std@@@std@@@2@XZ
	?_Get_scary@?$_Tree@V?$_Tmap_traits@V?$basic_string@DU?$char_traits@D@std@@V?$allocator@D@2@@std@@VTime@ros@@U?$less@V?$basic_string@DU?$char_traits@D@std@@V?$allocator@D@2@@std@@@2@V?$allocator@U?$pair@$$CBV?$basic_string@DU?$char_traits@D@std@@V?$allocator@D@2@@std@@VTime@ros@@@std@@@2@$0A@@std@@@std@@IEAAPEAV?$_Tree_val@U?$_Tree_simple_types@U?$pair@$$CBV?$basic_string@DU?$char_traits@D@std@@V?$allocator@D@2@@std@@VTime@ros@@@std@@@std@@@2@XZ
	?_Get_scary@?$_Tree@V?$_Tmap_traits@V?$basic_string@DU?$char_traits@D@std@@V?$allocator@D@2@@std@@VTime@ros@@U?$less@V?$basic_string@DU?$char_traits@D@std@@V?$allocator@D@2@@std@@@2@V?$allocator@U?$pair@$$CBV?$basic_string@DU?$char_traits@D@std@@V?$allocator@D@2@@std@@VTime@ros@@@std@@@2@$0A@@std@@@std@@IEBAPEBV?$_Tree_val@U?$_Tree_simple_types@U?$pair@$$CBV?$basic_string@DU?$char_traits@D@std@@V?$allocator@D@2@@std@@VTime@ros@@@std@@@std@@@2@XZ
	?_Get_scary@?$_Tree@V?$_Tmap_traits@V?$basic_string@DU?$char_traits@D@std@@V?$allocator@D@2@@std@@VTreeElement@KDL@@U?$less@V?$basic_string@DU?$char_traits@D@std@@V?$allocator@D@2@@std@@@2@V?$allocator@U?$pair@$$CBV?$basic_string@DU?$char_traits@D@std@@V?$allocator@D@2@@std@@VTreeElement@KDL@@@std@@@2@$0A@@std@@@std@@IEAAPEAV?$_Tree_val@U?$_Tree_simple_types@U?$pair@$$CBV?$basic_string@DU?$char_traits@D@std@@V?$allocator@D@2@@std@@VTreeElement@KDL@@@std@@@std@@@2@XZ
	?_Getal@?$_Tree@V?$_Tmap_traits@V?$basic_string@DU?$char_traits@D@std@@V?$allocator@D@2@@std@@NU?$less@V?$basic_string@DU?$char_traits@D@std@@V?$allocator@D@2@@std@@@2@V?$allocator@U?$pair@$$CBV?$basic_string@DU?$char_traits@D@std@@V?$allocator@D@2@@std@@N@std@@@2@$0A@@std@@@std@@IEAAAEAV?$allocator@U?$_Tree_node@U?$pair@$$CBV?$basic_string@DU?$char_traits@D@std@@V?$allocator@D@2@@std@@N@std@@PEAX@std@@@2@XZ
	?_Getal@?$_Tree@V?$_Tmap_traits@V?$basic_string@DU?$char_traits@D@std@@V?$allocator@D@2@@std@@NU?$less@V?$basic_string@DU?$char_traits@D@std@@V?$allocator@D@2@@std@@@2@V?$allocator@U?$pair@$$CBV?$basic_string@DU?$char_traits@D@std@@V?$allocator@D@2@@std@@N@std@@@2@$0A@@std@@@std@@IEBAAEBV?$allocator@U?$_Tree_node@U?$pair@$$CBV?$basic_string@DU?$char_traits@D@std@@V?$allocator@D@2@@std@@N@std@@PEAX@std@@@2@XZ
	?_Getal@?$_Tree@V?$_Tmap_traits@V?$basic_string@DU?$char_traits@D@std@@V?$allocator@D@2@@std@@V12@U?$less@V?$basic_string@DU?$char_traits@D@std@@V?$allocator@D@2@@std@@@2@V?$allocator@U?$pair@$$CBV?$basic_string@DU?$char_traits@D@std@@V?$allocator@D@2@@std@@V12@@std@@@2@$0A@@std@@@std@@IEAAAEAV?$allocator@U?$_Tree_node@U?$pair@$$CBV?$basic_string@DU?$char_traits@D@std@@V?$allocator@D@2@@std@@V12@@std@@PEAX@std@@@2@XZ
	?_Getal@?$_Tree@V?$_Tmap_traits@V?$basic_string@DU?$char_traits@D@std@@V?$allocator@D@2@@std@@V?$shared_ptr@VJoint@urdf@@@2@U?$less@V?$basic_string@DU?$char_traits@D@std@@V?$allocator@D@2@@std@@@2@V?$allocator@U?$pair@$$CBV?$basic_string@DU?$char_traits@D@std@@V?$allocator@D@2@@std@@V?$shared_ptr@VJoint@urdf@@@2@@std@@@2@$0A@@std@@@std@@IEAAAEAV?$allocator@U?$_Tree_node@U?$pair@$$CBV?$basic_string@DU?$char_traits@D@std@@V?$allocator@D@2@@std@@V?$shared_ptr@VJoint@urdf@@@2@@std@@PEAX@std@@@2@XZ
	?_Getal@?$_Tree@V?$_Tmap_traits@V?$basic_string@DU?$char_traits@D@std@@V?$allocator@D@2@@std@@V?$shared_ptr@VJointMimic@urdf@@@2@U?$less@V?$basic_string@DU?$char_traits@D@std@@V?$allocator@D@2@@std@@@2@V?$allocator@U?$pair@$$CBV?$basic_string@DU?$char_traits@D@std@@V?$allocator@D@2@@std@@V?$shared_ptr@VJointMimic@urdf@@@2@@std@@@2@$0A@@std@@@std@@IEAAAEAV?$allocator@U?$_Tree_node@U?$pair@$$CBV?$basic_string@DU?$char_traits@D@std@@V?$allocator@D@2@@std@@V?$shared_ptr@VJointMimic@urdf@@@2@@std@@PEAX@std@@@2@XZ
	?_Getal@?$_Tree@V?$_Tmap_traits@V?$basic_string@DU?$char_traits@D@std@@V?$allocator@D@2@@std@@V?$shared_ptr@VJointMimic@urdf@@@2@U?$less@V?$basic_string@DU?$char_traits@D@std@@V?$allocator@D@2@@std@@@2@V?$allocator@U?$pair@$$CBV?$basic_string@DU?$char_traits@D@std@@V?$allocator@D@2@@std@@V?$shared_ptr@VJointMimic@urdf@@@2@@std@@@2@$0A@@std@@@std@@IEBAAEBV?$allocator@U?$_Tree_node@U?$pair@$$CBV?$basic_string@DU?$char_traits@D@std@@V?$allocator@D@2@@std@@V?$shared_ptr@VJointMimic@urdf@@@2@@std@@PEAX@std@@@2@XZ
	?_Getal@?$_Tree@V?$_Tmap_traits@V?$basic_string@DU?$char_traits@D@std@@V?$allocator@D@2@@std@@V?$shared_ptr@VLink@urdf@@@2@U?$less@V?$basic_string@DU?$char_traits@D@std@@V?$allocator@D@2@@std@@@2@V?$allocator@U?$pair@$$CBV?$basic_string@DU?$char_traits@D@std@@V?$allocator@D@2@@std@@V?$shared_ptr@VLink@urdf@@@2@@std@@@2@$0A@@std@@@std@@IEAAAEAV?$allocator@U?$_Tree_node@U?$pair@$$CBV?$basic_string@DU?$char_traits@D@std@@V?$allocator@D@2@@std@@V?$shared_ptr@VLink@urdf@@@2@@std@@PEAX@std@@@2@XZ
	?_Getal@?$_Tree@V?$_Tmap_traits@V?$basic_string@DU?$char_traits@D@std@@V?$allocator@D@2@@std@@V?$shared_ptr@VMaterial@urdf@@@2@U?$less@V?$basic_string@DU?$char_traits@D@std@@V?$allocator@D@2@@std@@@2@V?$allocator@U?$pair@$$CBV?$basic_string@DU?$char_traits@D@std@@V?$allocator@D@2@@std@@V?$shared_ptr@VMaterial@urdf@@@2@@std@@@2@$0A@@std@@@std@@IEAAAEAV?$allocator@U?$_Tree_node@U?$pair@$$CBV?$basic_string@DU?$char_traits@D@std@@V?$allocator@D@2@@std@@V?$shared_ptr@VMaterial@urdf@@@2@@std@@PEAX@std@@@2@XZ
	?_Getal@?$_Tree@V?$_Tmap_traits@V?$basic_string@DU?$char_traits@D@std@@V?$allocator@D@2@@std@@VSegmentPair@robot_state_publisher@@U?$less@V?$basic_string@DU?$char_traits@D@std@@V?$allocator@D@2@@std@@@2@V?$allocator@U?$pair@$$CBV?$basic_string@DU?$char_traits@D@std@@V?$allocator@D@2@@std@@VSegmentPair@robot_state_publisher@@@std@@@2@$0A@@std@@@std@@IEAAAEAV?$allocator@U?$_Tree_node@U?$pair@$$CBV?$basic_string@DU?$char_traits@D@std@@V?$allocator@D@2@@std@@VSegmentPair@robot_state_publisher@@@std@@PEAX@std@@@2@XZ
	?_Getal@?$_Tree@V?$_Tmap_traits@V?$basic_string@DU?$char_traits@D@std@@V?$allocator@D@2@@std@@VTime@ros@@U?$less@V?$basic_string@DU?$char_traits@D@std@@V?$allocator@D@2@@std@@@2@V?$allocator@U?$pair@$$CBV?$basic_string@DU?$char_traits@D@std@@V?$allocator@D@2@@std@@VTime@ros@@@std@@@2@$0A@@std@@@std@@IEAAAEAV?$allocator@U?$_Tree_node@U?$pair@$$CBV?$basic_string@DU?$char_traits@D@std@@V?$allocator@D@2@@std@@VTime@ros@@@std@@PEAX@std@@@2@XZ
	?_Getal@?$_Tree@V?$_Tmap_traits@V?$basic_string@DU?$char_traits@D@std@@V?$allocator@D@2@@std@@VTime@ros@@U?$less@V?$basic_string@DU?$char_traits@D@std@@V?$allocator@D@2@@std@@@2@V?$allocator@U?$pair@$$CBV?$basic_string@DU?$char_traits@D@std@@V?$allocator@D@2@@std@@VTime@ros@@@std@@@2@$0A@@std@@@std@@IEBAAEBV?$allocator@U?$_Tree_node@U?$pair@$$CBV?$basic_string@DU?$char_traits@D@std@@V?$allocator@D@2@@std@@VTime@ros@@@std@@PEAX@std@@@2@XZ
	?_Getal@?$_Tree@V?$_Tmap_traits@V?$basic_string@DU?$char_traits@D@std@@V?$allocator@D@2@@std@@VTreeElement@KDL@@U?$less@V?$basic_string@DU?$char_traits@D@std@@V?$allocator@D@2@@std@@@2@V?$allocator@U?$pair@$$CBV?$basic_string@DU?$char_traits@D@std@@V?$allocator@D@2@@std@@VTreeElement@KDL@@@std@@@2@$0A@@std@@@std@@IEAAAEAV?$allocator@U?$_Tree_node@U?$pair@$$CBV?$basic_string@DU?$char_traits@D@std@@V?$allocator@D@2@@std@@VTreeElement@KDL@@@std@@PEAX@std@@@2@XZ
	?_Getal@?$basic_string@DU?$char_traits@D@std@@V?$allocator@D@2@@std@@AEAAAEAV?$allocator@D@2@XZ
	?_Getal@?$basic_string@DU?$char_traits@D@std@@V?$allocator@D@2@@std@@AEBAAEBV?$allocator@D@2@XZ
	?_Getal@?$vector@NV?$allocator@N@std@@@std@@AEAAAEAV?$allocator@N@2@XZ
	?_Getal@?$vector@NV?$allocator@N@std@@@std@@AEBAAEBV?$allocator@N@2@XZ
	?_Getal@?$vector@U?$TransformStamped_@V?$allocator@X@std@@@geometry_msgs@@V?$allocator@U?$TransformStamped_@V?$allocator@X@std@@@geometry_msgs@@@std@@@std@@AEAAAEAV?$allocator@U?$TransformStamped_@V?$allocator@X@std@@@geometry_msgs@@@2@XZ
	?_Getal@?$vector@V?$_Tree_const_iterator@V?$_Tree_val@U?$_Tree_simple_types@U?$pair@$$CBV?$basic_string@DU?$char_traits@D@std@@V?$allocator@D@2@@std@@VTreeElement@KDL@@@std@@@std@@@std@@@std@@V?$allocator@V?$_Tree_const_iterator@V?$_Tree_val@U?$_Tree_simple_types@U?$pair@$$CBV?$basic_string@DU?$char_traits@D@std@@V?$allocator@D@2@@std@@VTreeElement@KDL@@@std@@@std@@@std@@@std@@@2@@std@@AEAAAEAV?$allocator@V?$_Tree_const_iterator@V?$_Tree_val@U?$_Tree_simple_types@U?$pair@$$CBV?$basic_string@DU?$char_traits@D@std@@V?$allocator@D@2@@std@@VTreeElement@KDL@@@std@@@std@@@std@@@std@@@2@XZ
	?_Getal@?$vector@V?$basic_string@DU?$char_traits@D@std@@V?$allocator@D@2@@std@@V?$allocator@V?$basic_string@DU?$char_traits@D@std@@V?$allocator@D@2@@std@@@2@@std@@AEAAAEAV?$allocator@V?$basic_string@DU?$char_traits@D@std@@V?$allocator@D@2@@std@@@2@XZ
	?_Getal@?$vector@V?$basic_string@DU?$char_traits@D@std@@V?$allocator@D@2@@std@@V?$allocator@V?$basic_string@DU?$char_traits@D@std@@V?$allocator@D@2@@std@@@2@@std@@AEBAAEBV?$allocator@V?$basic_string@DU?$char_traits@D@std@@V?$allocator@D@2@@std@@@2@XZ
	?_Getcomp@?$_Tree@V?$_Tmap_traits@V?$basic_string@DU?$char_traits@D@std@@V?$allocator@D@2@@std@@NU?$less@V?$basic_string@DU?$char_traits@D@std@@V?$allocator@D@2@@std@@@2@V?$allocator@U?$pair@$$CBV?$basic_string@DU?$char_traits@D@std@@V?$allocator@D@2@@std@@N@std@@@2@$0A@@std@@@std@@IEBAAEBU?$less@V?$basic_string@DU?$char_traits@D@std@@V?$allocator@D@2@@std@@@2@XZ
	?_Getcomp@?$_Tree@V?$_Tmap_traits@V?$basic_string@DU?$char_traits@D@std@@V?$allocator@D@2@@std@@V?$shared_ptr@VJointMimic@urdf@@@2@U?$less@V?$basic_string@DU?$char_traits@D@std@@V?$allocator@D@2@@std@@@2@V?$allocator@U?$pair@$$CBV?$basic_string@DU?$char_traits@D@std@@V?$allocator@D@2@@std@@V?$shared_ptr@VJointMimic@urdf@@@2@@std@@@2@$0A@@std@@@std@@IEBAAEBU?$less@V?$basic_string@DU?$char_traits@D@std@@V?$allocator@D@2@@std@@@2@XZ
	?_Getcomp@?$_Tree@V?$_Tmap_traits@V?$basic_string@DU?$char_traits@D@std@@V?$allocator@D@2@@std@@VTime@ros@@U?$less@V?$basic_string@DU?$char_traits@D@std@@V?$allocator@D@2@@std@@@2@V?$allocator@U?$pair@$$CBV?$basic_string@DU?$char_traits@D@std@@V?$allocator@D@2@@std@@VTime@ros@@@std@@@2@$0A@@std@@@std@@IEBAAEBU?$less@V?$basic_string@DU?$char_traits@D@std@@V?$allocator@D@2@@std@@@2@XZ
	?_Incref@_Ref_count_base@std@@QEAAXXZ
	?_Insert_node@?$_Tree_val@U?$_Tree_simple_types@U?$pair@$$CBV?$basic_string@DU?$char_traits@D@std@@V?$allocator@D@2@@std@@N@std@@@std@@@std@@QEAAPEAU?$_Tree_node@U?$pair@$$CBV?$basic_string@DU?$char_traits@D@std@@V?$allocator@D@2@@std@@N@std@@PEAX@2@U?$_Tree_id@PEAU?$_Tree_node@U?$pair@$$CBV?$basic_string@DU?$char_traits@D@std@@V?$allocator@D@2@@std@@N@std@@PEAX@std@@@2@QEAU32@@Z
	?_Insert_node@?$_Tree_val@U?$_Tree_simple_types@U?$pair@$$CBV?$basic_string@DU?$char_traits@D@std@@V?$allocator@D@2@@std@@V?$shared_ptr@VJointMimic@urdf@@@2@@std@@@std@@@std@@QEAAPEAU?$_Tree_node@U?$pair@$$CBV?$basic_string@DU?$char_traits@D@std@@V?$allocator@D@2@@std@@V?$shared_ptr@VJointMimic@urdf@@@2@@std@@PEAX@2@U?$_Tree_id@PEAU?$_Tree_node@U?$pair@$$CBV?$basic_string@DU?$char_traits@D@std@@V?$allocator@D@2@@std@@V?$shared_ptr@VJointMimic@urdf@@@2@@std@@PEAX@std@@@2@QEAU32@@Z
	?_Insert_node@?$_Tree_val@U?$_Tree_simple_types@U?$pair@$$CBV?$basic_string@DU?$char_traits@D@std@@V?$allocator@D@2@@std@@VTime@ros@@@std@@@std@@@std@@QEAAPEAU?$_Tree_node@U?$pair@$$CBV?$basic_string@DU?$char_traits@D@std@@V?$allocator@D@2@@std@@VTime@ros@@@std@@PEAX@2@U?$_Tree_id@PEAU?$_Tree_node@U?$pair@$$CBV?$basic_string@DU?$char_traits@D@std@@V?$allocator@D@2@@std@@VTime@ros@@@std@@PEAX@std@@@2@QEAU32@@Z
	?_Large_string_engaged@?$_String_val@U?$_Simple_types@D@std@@@std@@QEBA_NXZ
	?_Lrotate@?$_Tree_val@U?$_Tree_simple_types@U?$pair@$$CBV?$basic_string@DU?$char_traits@D@std@@V?$allocator@D@2@@std@@N@std@@@std@@@std@@QEAAXPEAU?$_Tree_node@U?$pair@$$CBV?$basic_string@DU?$char_traits@D@std@@V?$allocator@D@2@@std@@N@std@@PEAX@2@@Z
	?_Lrotate@?$_Tree_val@U?$_Tree_simple_types@U?$pair@$$CBV?$basic_string@DU?$char_traits@D@std@@V?$allocator@D@2@@std@@V?$shared_ptr@VJointMimic@urdf@@@2@@std@@@std@@@std@@QEAAXPEAU?$_Tree_node@U?$pair@$$CBV?$basic_string@DU?$char_traits@D@std@@V?$allocator@D@2@@std@@V?$shared_ptr@VJointMimic@urdf@@@2@@std@@PEAX@2@@Z
	?_Lrotate@?$_Tree_val@U?$_Tree_simple_types@U?$pair@$$CBV?$basic_string@DU?$char_traits@D@std@@V?$allocator@D@2@@std@@VTime@ros@@@std@@@std@@@std@@QEAAXPEAU?$_Tree_node@U?$pair@$$CBV?$basic_string@DU?$char_traits@D@std@@V?$allocator@D@2@@std@@VTime@ros@@@std@@PEAX@2@@Z
	?_Maklocwcs@std@@YAPEA_WPEB_W@Z
	?_Mark@?$_String_bitmap@D$00@std@@QEAA_NPEBDQEBD@Z
	?_Match@?$_String_bitmap@D$00@std@@QEBA_ND@Z
	?_Max@?$_Tree_val@U?$_Tree_simple_types@U?$pair@$$CBV?$basic_string@DU?$char_traits@D@std@@V?$allocator@D@2@@std@@V?$shared_ptr@VJointMimic@urdf@@@2@@std@@@std@@@std@@SAPEAU?$_Tree_node@U?$pair@$$CBV?$basic_string@DU?$char_traits@D@std@@V?$allocator@D@2@@std@@V?$shared_ptr@VJointMimic@urdf@@@2@@std@@PEAX@2@PEAU32@@Z
	?_Memcpy_val_from@?$basic_string@DU?$char_traits@D@std@@V?$allocator@D@2@@std@@AEAAXAEBV12@@Z
	?_Min@?$_Tree_val@U?$_Tree_simple_types@U?$pair@$$CBV?$basic_string@DU?$char_traits@D@std@@V?$allocator@D@2@@std@@V?$shared_ptr@VJoint@urdf@@@2@@std@@@std@@@std@@SAPEAU?$_Tree_node@U?$pair@$$CBV?$basic_string@DU?$char_traits@D@std@@V?$allocator@D@2@@std@@V?$shared_ptr@VJoint@urdf@@@2@@std@@PEAX@2@PEAU32@@Z
	?_Min@?$_Tree_val@U?$_Tree_simple_types@U?$pair@$$CBV?$basic_string@DU?$char_traits@D@std@@V?$allocator@D@2@@std@@V?$shared_ptr@VJointMimic@urdf@@@2@@std@@@std@@@std@@SAPEAU?$_Tree_node@U?$pair@$$CBV?$basic_string@DU?$char_traits@D@std@@V?$allocator@D@2@@std@@V?$shared_ptr@VJointMimic@urdf@@@2@@std@@PEAX@2@PEAU32@@Z
	?_Move_assign@?$basic_string@DU?$char_traits@D@std@@V?$allocator@D@2@@std@@AEAAXAEAV12@U_Equal_allocators@2@@Z
	?_Myptr@?$_String_val@U?$_Simple_types@D@std@@@std@@QEAAPEADXZ
	?_Myptr@?$_String_val@U?$_Simple_types@D@std@@@std@@QEBAPEBDXZ
	?_Negate@?$_Atomic_integral_facade@H@std@@SAHH@Z
	?_Orphan_all@_Container_base0@std@@QEAAXXZ
	?_Orphan_ptr@?$_Tree_val@U?$_Tree_simple_types@U?$pair@$$CBV?$basic_string@DU?$char_traits@D@std@@V?$allocator@D@2@@std@@V?$shared_ptr@VJointMimic@urdf@@@2@@std@@@std@@@std@@QEAAXQEAU?$_Tree_node@U?$pair@$$CBV?$basic_string@DU?$char_traits@D@std@@V?$allocator@D@2@@std@@V?$shared_ptr@VJointMimic@urdf@@@2@@std@@PEAX@2@@Z
	?_Orphan_ptr@?$_Tree_val@U?$_Tree_simple_types@U?$pair@$$CBV?$basic_string@DU?$char_traits@D@std@@V?$allocator@D@2@@std@@VTime@ros@@@std@@@std@@@std@@QEAAXQEAU?$_Tree_node@U?$pair@$$CBV?$basic_string@DU?$char_traits@D@std@@V?$allocator@D@2@@std@@VTime@ros@@@std@@PEAX@2@@Z
	?_Orphan_range@?$vector@NV?$allocator@N@std@@@std@@AEBAXPEAN0@Z
	?_Orphan_range@?$vector@V?$basic_string@DU?$char_traits@D@std@@V?$allocator@D@2@@std@@V?$allocator@V?$basic_string@DU?$char_traits@D@std@@V?$allocator@D@2@@std@@@2@@std@@AEBAXPEAV?$basic_string@DU?$char_traits@D@std@@V?$allocator@D@2@@2@0@Z
	?_Release@?$_Alloc_construct_ptr@V?$allocator@U?$_Tree_node@U?$pair@$$CBV?$basic_string@DU?$char_traits@D@std@@V?$allocator@D@2@@std@@N@std@@PEAX@std@@@std@@@std@@QEAAPEAU?$_Tree_node@U?$pair@$$CBV?$basic_string@DU?$char_traits@D@std@@V?$allocator@D@2@@std@@N@std@@PEAX@2@XZ
	?_Release@?$_Alloc_construct_ptr@V?$allocator@U?$_Tree_node@U?$pair@$$CBV?$basic_string@DU?$char_traits@D@std@@V?$allocator@D@2@@std@@V?$shared_ptr@VJointMimic@urdf@@@2@@std@@PEAX@std@@@std@@@std@@QEAAPEAU?$_Tree_node@U?$pair@$$CBV?$basic_string@DU?$char_traits@D@std@@V?$allocator@D@2@@std@@V?$shared_ptr@VJointMimic@urdf@@@2@@std@@PEAX@2@XZ
	?_Release@?$_Alloc_construct_ptr@V?$allocator@U?$_Tree_node@U?$pair@$$CBV?$basic_string@DU?$char_traits@D@std@@V?$allocator@D@2@@std@@VTime@ros@@@std@@PEAX@std@@@std@@@std@@QEAAPEAU?$_Tree_node@U?$pair@$$CBV?$basic_string@DU?$char_traits@D@std@@V?$allocator@D@2@@std@@VTime@ros@@@std@@PEAX@2@XZ
	?_Release@?$_Tree_head_scoped_ptr@V?$allocator@U?$_Tree_node@U?$pair@$$CBV?$basic_string@DU?$char_traits@D@std@@V?$allocator@D@2@@std@@V?$shared_ptr@VJointMimic@urdf@@@2@@std@@PEAX@std@@@std@@V?$_Tree_val@U?$_Tree_simple_types@U?$pair@$$CBV?$basic_string@DU?$char_traits@D@std@@V?$allocator@D@2@@std@@V?$shared_ptr@VJointMimic@urdf@@@2@@std@@@std@@@2@@std@@QEAAXXZ
	?_Release@?$_Uninitialized_backout_al@V?$allocator@V?$basic_string@DU?$char_traits@D@std@@V?$allocator@D@2@@std@@@std@@@std@@QEAAPEAV?$basic_string@DU?$char_traits@D@std@@V?$allocator@D@2@@2@XZ
	?_Release@_Fake_proxy_ptr_impl@std@@QEAAXXZ
	?_Rrotate@?$_Tree_val@U?$_Tree_simple_types@U?$pair@$$CBV?$basic_string@DU?$char_traits@D@std@@V?$allocator@D@2@@std@@N@std@@@std@@@std@@QEAAXPEAU?$_Tree_node@U?$pair@$$CBV?$basic_string@DU?$char_traits@D@std@@V?$allocator@D@2@@std@@N@std@@PEAX@2@@Z
	?_Rrotate@?$_Tree_val@U?$_Tree_simple_types@U?$pair@$$CBV?$basic_string@DU?$char_traits@D@std@@V?$allocator@D@2@@std@@V?$shared_ptr@VJointMimic@urdf@@@2@@std@@@std@@@std@@QEAAXPEAU?$_Tree_node@U?$pair@$$CBV?$basic_string@DU?$char_traits@D@std@@V?$allocator@D@2@@std@@V?$shared_ptr@VJointMimic@urdf@@@2@@std@@PEAX@2@@Z
	?_Rrotate@?$_Tree_val@U?$_Tree_simple_types@U?$pair@$$CBV?$basic_string@DU?$char_traits@D@std@@V?$allocator@D@2@@std@@VTime@ros@@@std@@@std@@@std@@QEAAXPEAU?$_Tree_node@U?$pair@$$CBV?$basic_string@DU?$char_traits@D@std@@V?$allocator@D@2@@std@@VTime@ros@@@std@@PEAX@2@@Z
	?_Take_contents@?$basic_string@DU?$char_traits@D@std@@V?$allocator@D@2@@std@@AEAAXAEAV12@U?$integral_constant@_N$00@2@@Z
	?_Throw_bad_array_new_length@std@@YAXXZ
	?_Throw_tree_length_error@std@@YAXXZ
	?_Tidy@?$vector@NV?$allocator@N@std@@@std@@AEAAXXZ
	?_Tidy@?$vector@U?$TransformStamped_@V?$allocator@X@std@@@geometry_msgs@@V?$allocator@U?$TransformStamped_@V?$allocator@X@std@@@geometry_msgs@@@std@@@std@@AEAAXXZ
	?_Tidy@?$vector@V?$_Tree_const_iterator@V?$_Tree_val@U?$_Tree_simple_types@U?$pair@$$CBV?$basic_string@DU?$char_traits@D@std@@V?$allocator@D@2@@std@@VTreeElement@KDL@@@std@@@std@@@std@@@std@@V?$allocator@V?$_Tree_const_iterator@V?$_Tree_val@U?$_Tree_simple_types@U?$pair@$$CBV?$basic_string@DU?$char_traits@D@std@@V?$allocator@D@2@@std@@VTreeElement@KDL@@@std@@@std@@@std@@@std@@@2@@std@@AEAAXXZ
	?_Tidy@?$vector@V?$basic_string@DU?$char_traits@D@std@@V?$allocator@D@2@@std@@V?$allocator@V?$basic_string@DU?$char_traits@D@std@@V?$allocator@D@2@@std@@@2@@std@@AEAAXXZ
	?_Tidy_deallocate@?$basic_string@DU?$char_traits@D@std@@V?$allocator@D@2@@std@@AEAAXXZ
	?_Tidy_init@?$basic_string@DU?$char_traits@D@std@@V?$allocator@D@2@@std@@AEAAXXZ
	?_Ufill@?$vector@NV?$allocator@N@std@@@std@@AEAAPEANPEAN_KU_Value_init_tag@2@@Z
	?_Ufill@?$vector@V?$basic_string@DU?$char_traits@D@std@@V?$allocator@D@2@@std@@V?$allocator@V?$basic_string@DU?$char_traits@D@std@@V?$allocator@D@2@@std@@@2@@std@@AEAAPEAV?$basic_string@DU?$char_traits@D@std@@V?$allocator@D@2@@2@PEAV32@_KU_Value_init_tag@2@@Z
	?_Umove_if_noexcept1@?$vector@NV?$allocator@N@std@@@std@@AEAAXPEAN00U?$integral_constant@_N$00@2@@Z
	?_Umove_if_noexcept1@?$vector@V?$basic_string@DU?$char_traits@D@std@@V?$allocator@D@2@@std@@V?$allocator@V?$basic_string@DU?$char_traits@D@std@@V?$allocator@D@2@@std@@@2@@std@@AEAAXPEAV?$basic_string@DU?$char_traits@D@std@@V?$allocator@D@2@@2@00U?$integral_constant@_N$00@2@@Z
	?_Umove_if_noexcept@?$vector@NV?$allocator@N@std@@@std@@AEAAXPEAN00@Z
	?_Umove_if_noexcept@?$vector@V?$basic_string@DU?$char_traits@D@std@@V?$allocator@D@2@@std@@V?$allocator@V?$basic_string@DU?$char_traits@D@std@@V?$allocator@D@2@@std@@@2@@std@@AEAAXPEAV?$basic_string@DU?$char_traits@D@std@@V?$allocator@D@2@@2@00@Z
	?_Xlen@?$basic_string@DU?$char_traits@D@std@@V?$allocator@D@2@@std@@CAXXZ
	?_Xlength@?$vector@NV?$allocator@N@std@@@std@@CAXXZ
	?_Xlength@?$vector@V?$basic_string@DU?$char_traits@D@std@@V?$allocator@D@2@@std@@V?$allocator@V?$basic_string@DU?$char_traits@D@std@@V?$allocator@D@2@@std@@@2@@std@@CAXXZ
	?_Xran@?$_String_val@U?$_Simple_types@D@std@@@std@@SAXXZ
	?_internal_get_untyped_deleter@?$shared_ptr@U?$JointState_@V?$allocator@X@std@@@sensor_msgs@@@boost@@QEBAPEAXXZ
	?_internal_get_untyped_deleter@?$shared_ptr@V?$SubscriptionCallbackHelperT@AEBV?$shared_ptr@$$CBU?$JointState_@V?$allocator@X@std@@@sensor_msgs@@@boost@@X@ros@@@boost@@QEBAPEAXXZ
	?a2_@?$storage2@V?$value@PEAVJointStateListener@robot_state_publisher@@@_bi@boost@@U?$arg@$00@3@@_bi@boost@@SA?AU?$arg@$00@3@XZ
	?add_ref@?$refcount_ptr@Uerror_info_container@exception_detail@boost@@@exception_detail@boost@@AEAAXXZ
	?add_ref_copy@sp_counted_base@detail@boost@@QEAAXXZ
	?address@?$sp_ms_deleter@U?$JointState_@V?$allocator@X@std@@@sensor_msgs@@@detail@boost@@QEAAPEAXXZ
	?address@?$sp_ms_deleter@V?$SubscriptionCallbackHelperT@AEBV?$shared_ptr@$$CBU?$JointState_@V?$allocator@X@std@@@sensor_msgs@@@boost@@X@ros@@@detail@boost@@QEAAPEAXXZ
	?adopt@?$refcount_ptr@Uerror_info_container@exception_detail@boost@@@exception_detail@boost@@QEAAXPEAUerror_info_container@23@@Z
	?allocate@?$allocator@D@std@@QEAAPEAD_K@Z
	?allocate@?$allocator@N@std@@QEAAPEAN_K@Z
	?allocate@?$allocator@U?$_Tree_node@U?$pair@$$CBV?$basic_string@DU?$char_traits@D@std@@V?$allocator@D@2@@std@@N@std@@PEAX@std@@@std@@QEAAPEAU?$_Tree_node@U?$pair@$$CBV?$basic_string@DU?$char_traits@D@std@@V?$allocator@D@2@@std@@N@std@@PEAX@2@_K@Z
	?allocate@?$allocator@U?$_Tree_node@U?$pair@$$CBV?$basic_string@DU?$char_traits@D@std@@V?$allocator@D@2@@std@@V12@@std@@PEAX@std@@@std@@QEAAPEAU?$_Tree_node@U?$pair@$$CBV?$basic_string@DU?$char_traits@D@std@@V?$allocator@D@2@@std@@V12@@std@@PEAX@2@_K@Z
	?allocate@?$allocator@U?$_Tree_node@U?$pair@$$CBV?$basic_string@DU?$char_traits@D@std@@V?$allocator@D@2@@std@@V?$shared_ptr@VJoint@urdf@@@2@@std@@PEAX@std@@@std@@QEAAPEAU?$_Tree_node@U?$pair@$$CBV?$basic_string@DU?$char_traits@D@std@@V?$allocator@D@2@@std@@V?$shared_ptr@VJoint@urdf@@@2@@std@@PEAX@2@_K@Z
	?allocate@?$allocator@U?$_Tree_node@U?$pair@$$CBV?$basic_string@DU?$char_traits@D@std@@V?$allocator@D@2@@std@@V?$shared_ptr@VJointMimic@urdf@@@2@@std@@PEAX@std@@@std@@QEAAPEAU?$_Tree_node@U?$pair@$$CBV?$basic_string@DU?$char_traits@D@std@@V?$allocator@D@2@@std@@V?$shared_ptr@VJointMimic@urdf@@@2@@std@@PEAX@2@_K@Z
	?allocate@?$allocator@U?$_Tree_node@U?$pair@$$CBV?$basic_string@DU?$char_traits@D@std@@V?$allocator@D@2@@std@@V?$shared_ptr@VLink@urdf@@@2@@std@@PEAX@std@@@std@@QEAAPEAU?$_Tree_node@U?$pair@$$CBV?$basic_string@DU?$char_traits@D@std@@V?$allocator@D@2@@std@@V?$shared_ptr@VLink@urdf@@@2@@std@@PEAX@2@_K@Z
	?allocate@?$allocator@U?$_Tree_node@U?$pair@$$CBV?$basic_string@DU?$char_traits@D@std@@V?$allocator@D@2@@std@@V?$shared_ptr@VMaterial@urdf@@@2@@std@@PEAX@std@@@std@@QEAAPEAU?$_Tree_node@U?$pair@$$CBV?$basic_string@DU?$char_traits@D@std@@V?$allocator@D@2@@std@@V?$shared_ptr@VMaterial@urdf@@@2@@std@@PEAX@2@_K@Z
	?allocate@?$allocator@U?$_Tree_node@U?$pair@$$CBV?$basic_string@DU?$char_traits@D@std@@V?$allocator@D@2@@std@@VTime@ros@@@std@@PEAX@std@@@std@@QEAAPEAU?$_Tree_node@U?$pair@$$CBV?$basic_string@DU?$char_traits@D@std@@V?$allocator@D@2@@std@@VTime@ros@@@std@@PEAX@2@_K@Z
	?allocate@?$allocator@V?$basic_string@DU?$char_traits@D@std@@V?$allocator@D@2@@std@@@std@@QEAAPEAV?$basic_string@DU?$char_traits@D@std@@V?$allocator@D@2@@2@_K@Z
	?assign@?$_Narrow_char_traits@DH@std@@SAXAEADAEBD@Z
	?assign@?$basic_string@DU?$char_traits@D@std@@V?$allocator@D@2@@std@@QEAAAEAV12@AEBV12@_K_K@Z
	?assign@?$basic_string@DU?$char_traits@D@std@@V?$allocator@D@2@@std@@QEAAAEAV12@QEBD@Z
	?assign@?$basic_string@DU?$char_traits@D@std@@V?$allocator@D@2@@std@@QEAAAEAV12@QEBD_K@Z
	?assign_to_own@?$function0@V?$shared_ptr@U?$JointState_@V?$allocator@X@std@@@sensor_msgs@@@boost@@@boost@@AEAAXAEBV12@@Z
	?assign_to_own@?$function1@XAEBV?$shared_ptr@$$CBU?$JointState_@V?$allocator@X@std@@@sensor_msgs@@@boost@@@boost@@AEAAXAEBV12@@Z
	?assign_to_own@?$function1@XV?$shared_ptr@$$CBU?$JointState_@V?$allocator@X@std@@@sensor_msgs@@@boost@@@boost@@AEAAXAEBV12@@Z
	?atomic_decrement@detail@boost@@YAHPEAU?$atomic@H@std@@@Z
	?atomic_increment@detail@boost@@YAXPEAU?$atomic@H@std@@@Z
	?begin@?$_Tree@V?$_Tmap_traits@V?$basic_string@DU?$char_traits@D@std@@V?$allocator@D@2@@std@@V?$shared_ptr@VJoint@urdf@@@2@U?$less@V?$basic_string@DU?$char_traits@D@std@@V?$allocator@D@2@@std@@@2@V?$allocator@U?$pair@$$CBV?$basic_string@DU?$char_traits@D@std@@V?$allocator@D@2@@std@@V?$shared_ptr@VJoint@urdf@@@2@@std@@@2@$0A@@std@@@std@@QEAA?AV?$_Tree_iterator@V?$_Tree_val@U?$_Tree_simple_types@U?$pair@$$CBV?$basic_string@DU?$char_traits@D@std@@V?$allocator@D@2@@std@@V?$shared_ptr@VJoint@urdf@@@2@@std@@@std@@@std@@@2@XZ
	?begin@?$_Tree@V?$_Tmap_traits@V?$basic_string@DU?$char_traits@D@std@@V?$allocator@D@2@@std@@V?$shared_ptr@VJointMimic@urdf@@@2@U?$less@V?$basic_string@DU?$char_traits@D@std@@V?$allocator@D@2@@std@@@2@V?$allocator@U?$pair@$$CBV?$basic_string@DU?$char_traits@D@std@@V?$allocator@D@2@@std@@V?$shared_ptr@VJointMimic@urdf@@@2@@std@@@2@$0A@@std@@@std@@QEAA?AV?$_Tree_iterator@V?$_Tree_val@U?$_Tree_simple_types@U?$pair@$$CBV?$basic_string@DU?$char_traits@D@std@@V?$allocator@D@2@@std@@V?$shared_ptr@VJointMimic@urdf@@@2@@std@@@std@@@std@@@2@XZ
	?begin@?$vector@V?$basic_string@DU?$char_traits@D@std@@V?$allocator@D@2@@std@@V?$allocator@V?$basic_string@DU?$char_traits@D@std@@V?$allocator@D@2@@std@@@2@@std@@QEAA?AV?$_Vector_iterator@V?$_Vector_val@U?$_Simple_types@V?$basic_string@DU?$char_traits@D@std@@V?$allocator@D@2@@std@@@std@@@std@@@2@XZ
	?c_str@?$basic_string@DU?$char_traits@D@std@@V?$allocator@D@2@@std@@QEBAPEBDXZ
	?call@?$SubscriptionCallbackHelperT@AEBV?$shared_ptr@$$CBU?$JointState_@V?$allocator@X@std@@@sensor_msgs@@@boost@@X@ros@@UEAAXAEAUSubscriptionCallbackHelperCallParams@2@@Z
	?callbackFixedJoint@JointStateListener@robot_state_publisher@@MEAAXAEBUTimerEvent@ros@@@Z
	?callbackJointState@JointStateListener@robot_state_publisher@@MEAAXAEBV?$shared_ptr@$$CBU?$JointState_@V?$allocator@X@std@@@sensor_msgs@@@boost@@@Z
	?capacity@?$vector@NV?$allocator@N@std@@@std@@QEBA_KXZ
	?capacity@?$vector@V?$basic_string@DU?$char_traits@D@std@@V?$allocator@D@2@@std@@V?$allocator@V?$basic_string@DU?$char_traits@D@std@@V?$allocator@D@2@@std@@@2@@std@@QEBA_KXZ
	?clear@?$_Tree@V?$_Tmap_traits@V?$basic_string@DU?$char_traits@D@std@@V?$allocator@D@2@@std@@VTime@ros@@U?$less@V?$basic_string@DU?$char_traits@D@std@@V?$allocator@D@2@@std@@@2@V?$allocator@U?$pair@$$CBV?$basic_string@DU?$char_traits@D@std@@V?$allocator@D@2@@std@@VTime@ros@@@std@@@2@$0A@@std@@@std@@QEAAXXZ
	?clear@?$basic_string@DU?$char_traits@D@std@@V?$allocator@D@2@@std@@QEAAXXZ
	?clear@?$basic_vtable0@V?$shared_ptr@U?$JointState_@V?$allocator@X@std@@@sensor_msgs@@@boost@@@function@detail@boost@@QEBAXAEATfunction_buffer@234@@Z
	?clear@?$basic_vtable1@XAEBUTimerEvent@ros@@@function@detail@boost@@QEBAXAEATfunction_buffer@234@@Z
	?clear@?$basic_vtable1@XAEBV?$shared_ptr@$$CBU?$JointState_@V?$allocator@X@std@@@sensor_msgs@@@boost@@@function@detail@boost@@QEBAXAEATfunction_buffer@234@@Z
	?clear@?$basic_vtable1@XV?$shared_ptr@$$CBU?$JointState_@V?$allocator@X@std@@@sensor_msgs@@@boost@@@function@detail@boost@@QEBAXAEATfunction_buffer@234@@Z
	?clear@?$function0@V?$shared_ptr@U?$JointState_@V?$allocator@X@std@@@sensor_msgs@@@boost@@@boost@@QEAAXXZ
	?clear@?$function1@XAEBUTimerEvent@ros@@@boost@@QEAAXXZ
	?clear@?$function1@XAEBV?$shared_ptr@$$CBU?$JointState_@V?$allocator@X@std@@@sensor_msgs@@@boost@@@boost@@QEAAXXZ
	?clear@?$function1@XV?$shared_ptr@$$CBU?$JointState_@V?$allocator@X@std@@@sensor_msgs@@@boost@@@boost@@QEAAXXZ
	?clone@?$clone_impl@U?$error_info_injector@Vbad_function_call@boost@@@exception_detail@boost@@@exception_detail@boost@@$0PPPPPPPM@A@EBAPEBVclone_base@23@XZ
	?clone@?$clone_impl@U?$error_info_injector@Vbad_function_call@boost@@@exception_detail@boost@@@exception_detail@boost@@EEBAPEBVclone_base@23@XZ
	?compare@?$_Narrow_char_traits@DH@std@@SAHQEBD0_K@Z
	?compare@?$basic_string@DU?$char_traits@D@std@@V?$allocator@D@2@@std@@QEBAHAEBV12@@Z
	?copy@?$_Narrow_char_traits@DH@std@@SAPEADQEADQEBD_K@Z
	?copy_boost_exception@exception_detail@boost@@YAXPEAVexception@2@PEBV32@@Z
	?deallocate@?$_Default_allocator_traits@V?$allocator@U?$_Tree_node@U?$pair@$$CBV?$basic_string@DU?$char_traits@D@std@@V?$allocator@D@2@@std@@N@std@@PEAX@std@@@std@@@std@@SAXAEAV?$allocator@U?$_Tree_node@U?$pair@$$CBV?$basic_string@DU?$char_traits@D@std@@V?$allocator@D@2@@std@@N@std@@PEAX@std@@@2@QEAU?$_Tree_node@U?$pair@$$CBV?$basic_string@DU?$char_traits@D@std@@V?$allocator@D@2@@std@@N@std@@PEAX@2@_K@Z
	?deallocate@?$_Default_allocator_traits@V?$allocator@U?$_Tree_node@U?$pair@$$CBV?$basic_string@DU?$char_traits@D@std@@V?$allocator@D@2@@std@@V12@@std@@PEAX@std@@@std@@@std@@SAXAEAV?$allocator@U?$_Tree_node@U?$pair@$$CBV?$basic_string@DU?$char_traits@D@std@@V?$allocator@D@2@@std@@V12@@std@@PEAX@std@@@2@QEAU?$_Tree_node@U?$pair@$$CBV?$basic_string@DU?$char_traits@D@std@@V?$allocator@D@2@@std@@V12@@std@@PEAX@2@_K@Z
	?deallocate@?$_Default_allocator_traits@V?$allocator@U?$_Tree_node@U?$pair@$$CBV?$basic_string@DU?$char_traits@D@std@@V?$allocator@D@2@@std@@V?$shared_ptr@VJoint@urdf@@@2@@std@@PEAX@std@@@std@@@std@@SAXAEAV?$allocator@U?$_Tree_node@U?$pair@$$CBV?$basic_string@DU?$char_traits@D@std@@V?$allocator@D@2@@std@@V?$shared_ptr@VJoint@urdf@@@2@@std@@PEAX@std@@@2@QEAU?$_Tree_node@U?$pair@$$CBV?$basic_string@DU?$char_traits@D@std@@V?$allocator@D@2@@std@@V?$shared_ptr@VJoint@urdf@@@2@@std@@PEAX@2@_K@Z
	?deallocate@?$_Default_allocator_traits@V?$allocator@U?$_Tree_node@U?$pair@$$CBV?$basic_string@DU?$char_traits@D@std@@V?$allocator@D@2@@std@@V?$shared_ptr@VJointMimic@urdf@@@2@@std@@PEAX@std@@@std@@@std@@SAXAEAV?$allocator@U?$_Tree_node@U?$pair@$$CBV?$basic_string@DU?$char_traits@D@std@@V?$allocator@D@2@@std@@V?$shared_ptr@VJointMimic@urdf@@@2@@std@@PEAX@std@@@2@QEAU?$_Tree_node@U?$pair@$$CBV?$basic_string@DU?$char_traits@D@std@@V?$allocator@D@2@@std@@V?$shared_ptr@VJointMimic@urdf@@@2@@std@@PEAX@2@_K@Z
	?deallocate@?$_Default_allocator_traits@V?$allocator@U?$_Tree_node@U?$pair@$$CBV?$basic_string@DU?$char_traits@D@std@@V?$allocator@D@2@@std@@V?$shared_ptr@VLink@urdf@@@2@@std@@PEAX@std@@@std@@@std@@SAXAEAV?$allocator@U?$_Tree_node@U?$pair@$$CBV?$basic_string@DU?$char_traits@D@std@@V?$allocator@D@2@@std@@V?$shared_ptr@VLink@urdf@@@2@@std@@PEAX@std@@@2@QEAU?$_Tree_node@U?$pair@$$CBV?$basic_string@DU?$char_traits@D@std@@V?$allocator@D@2@@std@@V?$shared_ptr@VLink@urdf@@@2@@std@@PEAX@2@_K@Z
	?deallocate@?$_Default_allocator_traits@V?$allocator@U?$_Tree_node@U?$pair@$$CBV?$basic_string@DU?$char_traits@D@std@@V?$allocator@D@2@@std@@V?$shared_ptr@VMaterial@urdf@@@2@@std@@PEAX@std@@@std@@@std@@SAXAEAV?$allocator@U?$_Tree_node@U?$pair@$$CBV?$basic_string@DU?$char_traits@D@std@@V?$allocator@D@2@@std@@V?$shared_ptr@VMaterial@urdf@@@2@@std@@PEAX@std@@@2@QEAU?$_Tree_node@U?$pair@$$CBV?$basic_string@DU?$char_traits@D@std@@V?$allocator@D@2@@std@@V?$shared_ptr@VMaterial@urdf@@@2@@std@@PEAX@2@_K@Z
	?deallocate@?$_Default_allocator_traits@V?$allocator@U?$_Tree_node@U?$pair@$$CBV?$basic_string@DU?$char_traits@D@std@@V?$allocator@D@2@@std@@VSegmentPair@robot_state_publisher@@@std@@PEAX@std@@@std@@@std@@SAXAEAV?$allocator@U?$_Tree_node@U?$pair@$$CBV?$basic_string@DU?$char_traits@D@std@@V?$allocator@D@2@@std@@VSegmentPair@robot_state_publisher@@@std@@PEAX@std@@@2@QEAU?$_Tree_node@U?$pair@$$CBV?$basic_string@DU?$char_traits@D@std@@V?$allocator@D@2@@std@@VSegmentPair@robot_state_publisher@@@std@@PEAX@2@_K@Z
	?deallocate@?$_Default_allocator_traits@V?$allocator@U?$_Tree_node@U?$pair@$$CBV?$basic_string@DU?$char_traits@D@std@@V?$allocator@D@2@@std@@VTime@ros@@@std@@PEAX@std@@@std@@@std@@SAXAEAV?$allocator@U?$_Tree_node@U?$pair@$$CBV?$basic_string@DU?$char_traits@D@std@@V?$allocator@D@2@@std@@VTime@ros@@@std@@PEAX@std@@@2@QEAU?$_Tree_node@U?$pair@$$CBV?$basic_string@DU?$char_traits@D@std@@V?$allocator@D@2@@std@@VTime@ros@@@std@@PEAX@2@_K@Z
	?deallocate@?$_Default_allocator_traits@V?$allocator@U?$_Tree_node@U?$pair@$$CBV?$basic_string@DU?$char_traits@D@std@@V?$allocator@D@2@@std@@VTreeElement@KDL@@@std@@PEAX@std@@@std@@@std@@SAXAEAV?$allocator@U?$_Tree_node@U?$pair@$$CBV?$basic_string@DU?$char_traits@D@std@@V?$allocator@D@2@@std@@VTreeElement@KDL@@@std@@PEAX@std@@@2@QEAU?$_Tree_node@U?$pair@$$CBV?$basic_string@DU?$char_traits@D@std@@V?$allocator@D@2@@std@@VTreeElement@KDL@@@std@@PEAX@2@_K@Z
	?deallocate@?$allocator@D@std@@QEAAXQEAD_K@Z
	?deallocate@?$allocator@N@std@@QEAAXQEAN_K@Z
	?deallocate@?$allocator@U?$TransformStamped_@V?$allocator@X@std@@@geometry_msgs@@@std@@QEAAXQEAU?$TransformStamped_@V?$allocator@X@std@@@geometry_msgs@@_K@Z
	?deallocate@?$allocator@U?$_Tree_node@U?$pair@$$CBV?$basic_string@DU?$char_traits@D@std@@V?$allocator@D@2@@std@@N@std@@PEAX@std@@@std@@QEAAXQEAU?$_Tree_node@U?$pair@$$CBV?$basic_string@DU?$char_traits@D@std@@V?$allocator@D@2@@std@@N@std@@PEAX@2@_K@Z
	?deallocate@?$allocator@U?$_Tree_node@U?$pair@$$CBV?$basic_string@DU?$char_traits@D@std@@V?$allocator@D@2@@std@@V?$shared_ptr@VJointMimic@urdf@@@2@@std@@PEAX@std@@@std@@QEAAXQEAU?$_Tree_node@U?$pair@$$CBV?$basic_string@DU?$char_traits@D@std@@V?$allocator@D@2@@std@@V?$shared_ptr@VJointMimic@urdf@@@2@@std@@PEAX@2@_K@Z
	?deallocate@?$allocator@U?$_Tree_node@U?$pair@$$CBV?$basic_string@DU?$char_traits@D@std@@V?$allocator@D@2@@std@@VTime@ros@@@std@@PEAX@std@@@std@@QEAAXQEAU?$_Tree_node@U?$pair@$$CBV?$basic_string@DU?$char_traits@D@std@@V?$allocator@D@2@@std@@VTime@ros@@@std@@PEAX@2@_K@Z
	?deallocate@?$allocator@V?$_Tree_const_iterator@V?$_Tree_val@U?$_Tree_simple_types@U?$pair@$$CBV?$basic_string@DU?$char_traits@D@std@@V?$allocator@D@2@@std@@VTreeElement@KDL@@@std@@@std@@@std@@@std@@@std@@QEAAXQEAV?$_Tree_const_iterator@V?$_Tree_val@U?$_Tree_simple_types@U?$pair@$$CBV?$basic_string@DU?$char_traits@D@std@@V?$allocator@D@2@@std@@VTreeElement@KDL@@@std@@@std@@@std@@@2@_K@Z
	?deallocate@?$allocator@V?$basic_string@DU?$char_traits@D@std@@V?$allocator@D@2@@std@@@std@@QEAAXQEAV?$basic_string@DU?$char_traits@D@std@@V?$allocator@D@2@@2@_K@Z
	?deserialize@?$SubscriptionCallbackHelperT@AEBV?$shared_ptr@$$CBU?$JointState_@V?$allocator@X@std@@@sensor_msgs@@@boost@@X@ros@@UEAA?AV?$shared_ptr@$$CBX@boost@@AEBUSubscriptionCallbackHelperDeserializeParams@2@@Z
	?destroy@?$sp_ms_deleter@U?$JointState_@V?$allocator@X@std@@@sensor_msgs@@@detail@boost@@AEAAXXZ
	?destroy@?$sp_ms_deleter@V?$SubscriptionCallbackHelperT@AEBV?$shared_ptr@$$CBU?$JointState_@V?$allocator@X@std@@@sensor_msgs@@@boost@@X@ros@@@detail@boost@@AEAAXXZ
	?destroy@sp_counted_base@detail@boost@@UEAAXXZ
	?dispose@?$sp_counted_impl_pd@PEAU?$JointState_@V?$allocator@X@std@@@sensor_msgs@@V?$sp_ms_deleter@U?$JointState_@V?$allocator@X@std@@@sensor_msgs@@@detail@boost@@@detail@boost@@UEAAXXZ
	?dispose@?$sp_counted_impl_pd@PEAV?$SubscriptionCallbackHelperT@AEBV?$shared_ptr@$$CBU?$JointState_@V?$allocator@X@std@@@sensor_msgs@@@boost@@X@ros@@V?$sp_ms_deleter@V?$SubscriptionCallbackHelperT@AEBV?$shared_ptr@$$CBU?$JointState_@V?$allocator@X@std@@@sensor_msgs@@@boost@@X@ros@@@detail@boost@@@detail@boost@@UEAAXXZ
	?empty@?$vector@NV?$allocator@N@std@@@std@@QEBA_NXZ
	?empty@function_base@boost@@QEBA_NXZ
	?end@?$_Tree@V?$_Tmap_traits@V?$basic_string@DU?$char_traits@D@std@@V?$allocator@D@2@@std@@NU?$less@V?$basic_string@DU?$char_traits@D@std@@V?$allocator@D@2@@std@@@2@V?$allocator@U?$pair@$$CBV?$basic_string@DU?$char_traits@D@std@@V?$allocator@D@2@@std@@N@std@@@2@$0A@@std@@@std@@QEAA?AV?$_Tree_iterator@V?$_Tree_val@U?$_Tree_simple_types@U?$pair@$$CBV?$basic_string@DU?$char_traits@D@std@@V?$allocator@D@2@@std@@N@std@@@std@@@std@@@2@XZ
	?end@?$_Tree@V?$_Tmap_traits@V?$basic_string@DU?$char_traits@D@std@@V?$allocator@D@2@@std@@V?$shared_ptr@VJoint@urdf@@@2@U?$less@V?$basic_string@DU?$char_traits@D@std@@V?$allocator@D@2@@std@@@2@V?$allocator@U?$pair@$$CBV?$basic_string@DU?$char_traits@D@std@@V?$allocator@D@2@@std@@V?$shared_ptr@VJoint@urdf@@@2@@std@@@2@$0A@@std@@@std@@QEAA?AV?$_Tree_iterator@V?$_Tree_val@U?$_Tree_simple_types@U?$pair@$$CBV?$basic_string@DU?$char_traits@D@std@@V?$allocator@D@2@@std@@V?$shared_ptr@VJoint@urdf@@@2@@std@@@std@@@std@@@2@XZ
	?end@?$_Tree@V?$_Tmap_traits@V?$basic_string@DU?$char_traits@D@std@@V?$allocator@D@2@@std@@V?$shared_ptr@VJointMimic@urdf@@@2@U?$less@V?$basic_string@DU?$char_traits@D@std@@V?$allocator@D@2@@std@@@2@V?$allocator@U?$pair@$$CBV?$basic_string@DU?$char_traits@D@std@@V?$allocator@D@2@@std@@V?$shared_ptr@VJointMimic@urdf@@@2@@std@@@2@$0A@@std@@@std@@QEAA?AV?$_Tree_iterator@V?$_Tree_val@U?$_Tree_simple_types@U?$pair@$$CBV?$basic_string@DU?$char_traits@D@std@@V?$allocator@D@2@@std@@V?$shared_ptr@VJointMimic@urdf@@@2@@std@@@std@@@std@@@2@XZ
	?end@?$vector@V?$basic_string@DU?$char_traits@D@std@@V?$allocator@D@2@@std@@V?$allocator@V?$basic_string@DU?$char_traits@D@std@@V?$allocator@D@2@@std@@@2@@std@@QEAA?AV?$_Vector_iterator@V?$_Vector_val@U?$_Simple_types@V?$basic_string@DU?$char_traits@D@std@@V?$allocator@D@2@@std@@@std@@@std@@@2@XZ
	?equal@stl_type_index@typeindex@boost@@QEBA_NAEBV123@@Z
	?fetch_add@?$_Atomic_integral@H$03@std@@QEAAHHW4memory_order@2@@Z
	?fetch_sub@?$_Atomic_integral_facade@H@std@@QEAAHHW4memory_order@2@@Z
	?find@?$_Narrow_char_traits@DH@std@@SAPEBDQEBD_KAEBD@Z
	?find@?$_Tree@V?$_Tmap_traits@V?$basic_string@DU?$char_traits@D@std@@V?$allocator@D@2@@std@@NU?$less@V?$basic_string@DU?$char_traits@D@std@@V?$allocator@D@2@@std@@@2@V?$allocator@U?$pair@$$CBV?$basic_string@DU?$char_traits@D@std@@V?$allocator@D@2@@std@@N@std@@@2@$0A@@std@@@std@@QEAA?AV?$_Tree_iterator@V?$_Tree_val@U?$_Tree_simple_types@U?$pair@$$CBV?$basic_string@DU?$char_traits@D@std@@V?$allocator@D@2@@std@@N@std@@@std@@@std@@@2@AEBV?$basic_string@DU?$char_traits@D@std@@V?$allocator@D@2@@2@@Z
	?find_last_of@?$basic_string@DU?$char_traits@D@std@@V?$allocator@D@2@@std@@QEBA_KQEBD_K@Z
	?front@?$vector@NV?$allocator@N@std@@@std@@QEAAAEANXZ
	?get@?$_Ptr_base@VJoint@urdf@@@std@@IEBAPEAVJoint@urdf@@XZ
	?get@?$_Ptr_base@VJointMimic@urdf@@@std@@IEBAPEAVJointMimic@urdf@@XZ
	?get@?$refcount_ptr@Uerror_info_container@exception_detail@boost@@@exception_detail@boost@@QEBAPEAUerror_info_container@23@XZ
	?get@?$shared_ptr@$$CBU?$JointState_@V?$allocator@X@std@@@sensor_msgs@@@boost@@QEBAPEBU?$JointState_@V?$allocator@X@std@@@sensor_msgs@@XZ
	?get@?$shared_ptr@$$CBX@boost@@QEBAPEBXXZ
	?get@?$value@PEAVJointStateListener@robot_state_publisher@@@_bi@boost@@QEAAAEAPEAVJointStateListener@robot_state_publisher@@XZ
	?getConnectionHeaderPtr@?$MessageEvent@$$CBX@ros@@QEBAAEBV?$shared_ptr@V?$map@V?$basic_string@DU?$char_traits@D@std@@V?$allocator@D@2@@std@@V12@U?$less@V?$basic_string@DU?$char_traits@D@std@@V?$allocator@D@2@@std@@@2@V?$allocator@U?$pair@$$CBV?$basic_string@DU?$char_traits@D@std@@V?$allocator@D@2@@std@@V12@@std@@@2@@std@@@boost@@XZ
	?getMessage@?$MessageEvent@$$CBU?$JointState_@V?$allocator@X@std@@@sensor_msgs@@@ros@@QEBA?AV?$shared_ptr@$$CBU?$JointState_@V?$allocator@X@std@@@sensor_msgs@@@boost@@XZ
	?getMessage@?$MessageEvent@$$CBX@ros@@QEBA?AV?$shared_ptr@$$CBX@boost@@XZ
	?getParameter@?$ParameterAdapter@AEBV?$shared_ptr@$$CBU?$JointState_@V?$allocator@X@std@@@sensor_msgs@@@boost@@@ros@@SA?BV?$shared_ptr@$$CBU?$JointState_@V?$allocator@X@std@@@sensor_msgs@@@boost@@AEBV?$MessageEvent@$$CBU?$JointState_@V?$allocator@X@std@@@sensor_msgs@@@2@@Z
	?getReceiptTime@?$MessageEvent@$$CBX@ros@@QEBA?AVTime@2@XZ
	?getTypeInfo@?$SubscriptionCallbackHelperT@AEBV?$shared_ptr@$$CBU?$JointState_@V?$allocator@X@std@@@sensor_msgs@@@boost@@X@ros@@UEAAAEBVtype_info@@XZ
	?get_allocator@?$basic_string@DU?$char_traits@D@std@@V?$allocator@D@2@@std@@QEBA?AV?$allocator@D@2@XZ
	?get_deleter@?$sp_counted_impl_pd@PEAU?$JointState_@V?$allocator@X@std@@@sensor_msgs@@V?$sp_ms_deleter@U?$JointState_@V?$allocator@X@std@@@sensor_msgs@@@detail@boost@@@detail@boost@@UEAAPEAXAEBVtype_info@@@Z
	?get_deleter@?$sp_counted_impl_pd@PEAV?$SubscriptionCallbackHelperT@AEBV?$shared_ptr@$$CBU?$JointState_@V?$allocator@X@std@@@sensor_msgs@@@boost@@X@ros@@V?$sp_ms_deleter@V?$SubscriptionCallbackHelperT@AEBV?$shared_ptr@$$CBU?$JointState_@V?$allocator@X@std@@@sensor_msgs@@@boost@@X@ros@@@detail@boost@@@detail@boost@@UEAAPEAXAEBVtype_info@@@Z
	?get_local_deleter@?$sp_counted_impl_pd@PEAU?$JointState_@V?$allocator@X@std@@@sensor_msgs@@V?$sp_ms_deleter@U?$JointState_@V?$allocator@X@std@@@sensor_msgs@@@detail@boost@@@detail@boost@@UEAAPEAXAEBVtype_info@@@Z
	?get_local_deleter@?$sp_counted_impl_pd@PEAV?$SubscriptionCallbackHelperT@AEBV?$shared_ptr@$$CBU?$JointState_@V?$allocator@X@std@@@sensor_msgs@@@boost@@X@ros@@V?$sp_ms_deleter@V?$SubscriptionCallbackHelperT@AEBV?$shared_ptr@$$CBU?$JointState_@V?$allocator@X@std@@@sensor_msgs@@@boost@@X@ros@@@detail@boost@@@detail@boost@@UEAAPEAXAEBVtype_info@@@Z
	?get_untyped_deleter@?$sp_counted_impl_pd@PEAU?$JointState_@V?$allocator@X@std@@@sensor_msgs@@V?$sp_ms_deleter@U?$JointState_@V?$allocator@X@std@@@sensor_msgs@@@detail@boost@@@detail@boost@@UEAAPEAXXZ
	?get_untyped_deleter@?$sp_counted_impl_pd@PEAV?$SubscriptionCallbackHelperT@AEBV?$shared_ptr@$$CBU?$JointState_@V?$allocator@X@std@@@sensor_msgs@@@boost@@X@ros@@V?$sp_ms_deleter@V?$SubscriptionCallbackHelperT@AEBV?$shared_ptr@$$CBU?$JointState_@V?$allocator@X@std@@@sensor_msgs@@@boost@@X@ros@@@detail@boost@@@detail@boost@@UEAAPEAXXZ
	?get_untyped_deleter@shared_count@detail@boost@@QEBAPEAXXZ
	?get_vtable@?$function0@V?$shared_ptr@U?$JointState_@V?$allocator@X@std@@@sensor_msgs@@@boost@@@boost@@AEBAPEAU?$basic_vtable0@V?$shared_ptr@U?$JointState_@V?$allocator@X@std@@@sensor_msgs@@@boost@@@function@detail@2@XZ
	?get_vtable@?$function1@XAEBUTimerEvent@ros@@@boost@@AEBAPEAU?$basic_vtable1@XAEBUTimerEvent@ros@@@function@detail@2@XZ
	?get_vtable@?$function1@XAEBV?$shared_ptr@$$CBU?$JointState_@V?$allocator@X@std@@@sensor_msgs@@@boost@@@boost@@AEBAPEAU?$basic_vtable1@XAEBV?$shared_ptr@$$CBU?$JointState_@V?$allocator@X@std@@@sensor_msgs@@@boost@@@function@detail@2@XZ
	?get_vtable@?$function1@XV?$shared_ptr@$$CBU?$JointState_@V?$allocator@X@std@@@sensor_msgs@@@boost@@@boost@@AEBAPEAU?$basic_vtable1@XV?$shared_ptr@$$CBU?$JointState_@V?$allocator@X@std@@@sensor_msgs@@@boost@@@function@detail@2@XZ
	?hasHeader@?$SubscriptionCallbackHelperT@AEBV?$shared_ptr@$$CBU?$JointState_@V?$allocator@X@std@@@sensor_msgs@@@boost@@X@ros@@UEAA_NXZ
	?has_empty_target@function@detail@boost@@YA_NPEBVfunction_base@3@@Z
	?has_empty_target@function@detail@boost@@YA_NZZ
	?has_trivial_copy_and_destroy@function_base@boost@@QEBA_NXZ
	?init@?$MessageEvent@$$CBU?$JointState_@V?$allocator@X@std@@@sensor_msgs@@@ros@@QEAAXAEBV?$shared_ptr@$$CBU?$JointState_@V?$allocator@X@std@@@sensor_msgs@@@boost@@AEBV?$shared_ptr@V?$map@V?$basic_string@DU?$char_traits@D@std@@V?$allocator@D@2@@std@@V12@U?$less@V?$basic_string@DU?$char_traits@D@std@@V?$allocator@D@2@@std@@@2@V?$allocator@U?$pair@$$CBV?$basic_string@DU?$char_traits@D@std@@V?$allocator@D@2@@std@@V12@@std@@@2@@std@@@4@VTime@2@_NAEBV?$function@$$A6A?AV?$shared_ptr@U?$JointState_@V?$allocator@X@std@@@sensor_msgs@@@boost@@XZ@4@@Z
	?invoke@?$function_obj_invoker0@U?$DefaultMessageCreator@U?$JointState_@V?$allocator@X@std@@@sensor_msgs@@@ros@@V?$shared_ptr@U?$JointState_@V?$allocator@X@std@@@sensor_msgs@@@boost@@@function@detail@boost@@SA?AV?$shared_ptr@U?$JointState_@V?$allocator@X@std@@@sensor_msgs@@@4@AEATfunction_buffer@234@@Z
	?invoke@?$void_function_obj_invoker1@V?$bind_t@XV?$mf1@XVJointStateListener@robot_state_publisher@@AEBUTimerEvent@ros@@@_mfi@boost@@V?$list2@V?$value@PEAVJointStateListener@robot_state_publisher@@@_bi@boost@@U?$arg@$00@3@@_bi@3@@_bi@boost@@XAEBUTimerEvent@ros@@@function@detail@boost@@SAXAEATfunction_buffer@234@AEBUTimerEvent@ros@@@Z
	?invoke@?$void_function_obj_invoker1@V?$bind_t@XV?$mf1@XVJointStateListener@robot_state_publisher@@AEBV?$shared_ptr@$$CBU?$JointState_@V?$allocator@X@std@@@sensor_msgs@@@boost@@@_mfi@boost@@V?$list2@V?$value@PEAVJointStateListener@robot_state_publisher@@@_bi@boost@@U?$arg@$00@3@@_bi@3@@_bi@boost@@XAEBV?$shared_ptr@$$CBU?$JointState_@V?$allocator@X@std@@@sensor_msgs@@@3@@function@detail@boost@@SAXAEATfunction_buffer@234@AEBV?$shared_ptr@$$CBU?$JointState_@V?$allocator@X@std@@@sensor_msgs@@@4@@Z
	?invoke@?$void_function_obj_invoker1@V?$function@$$A6AXAEBV?$shared_ptr@$$CBU?$JointState_@V?$allocator@X@std@@@sensor_msgs@@@boost@@@Z@boost@@XV?$shared_ptr@$$CBU?$JointState_@V?$allocator@X@std@@@sensor_msgs@@@2@@function@detail@boost@@SAXAEATfunction_buffer@234@V?$shared_ptr@$$CBU?$JointState_@V?$allocator@X@std@@@sensor_msgs@@@4@@Z
	?isConst@?$SubscriptionCallbackHelperT@AEBV?$shared_ptr@$$CBU?$JointState_@V?$allocator@X@std@@@sensor_msgs@@@boost@@X@ros@@UEAA_NXZ
	?key_comp@?$_Tree@V?$_Tmap_traits@V?$basic_string@DU?$char_traits@D@std@@V?$allocator@D@2@@std@@V?$shared_ptr@VJointMimic@urdf@@@2@U?$less@V?$basic_string@DU?$char_traits@D@std@@V?$allocator@D@2@@std@@@2@V?$allocator@U?$pair@$$CBV?$basic_string@DU?$char_traits@D@std@@V?$allocator@D@2@@std@@V?$shared_ptr@VJointMimic@urdf@@@2@@std@@@2@$0A@@std@@@std@@QEBA?AU?$less@V?$basic_string@DU?$char_traits@D@std@@V?$allocator@D@2@@std@@@2@XZ
	?length@?$_Narrow_char_traits@DH@std@@SA_KQEBD@Z
	?manage@?$functor_manager@U?$DefaultMessageCreator@U?$JointState_@V?$allocator@X@std@@@sensor_msgs@@@ros@@@function@detail@boost@@SAXAEBTfunction_buffer@234@AEAT5234@W4functor_manager_operation_type@234@@Z
	?manage@?$functor_manager@V?$bind_t@XV?$mf1@XVJointStateListener@robot_state_publisher@@AEBUTimerEvent@ros@@@_mfi@boost@@V?$list2@V?$value@PEAVJointStateListener@robot_state_publisher@@@_bi@boost@@U?$arg@$00@3@@_bi@3@@_bi@boost@@@function@detail@boost@@SAXAEBTfunction_buffer@234@AEAT5234@W4functor_manager_operation_type@234@@Z
	?manage@?$functor_manager@V?$bind_t@XV?$mf1@XVJointStateListener@robot_state_publisher@@AEBV?$shared_ptr@$$CBU?$JointState_@V?$allocator@X@std@@@sensor_msgs@@@boost@@@_mfi@boost@@V?$list2@V?$value@PEAVJointStateListener@robot_state_publisher@@@_bi@boost@@U?$arg@$00@3@@_bi@3@@_bi@boost@@@function@detail@boost@@SAXAEBTfunction_buffer@234@AEAT5234@W4functor_manager_operation_type@234@@Z
	?manage@?$functor_manager@V?$function@$$A6AXAEBV?$shared_ptr@$$CBU?$JointState_@V?$allocator@X@std@@@sensor_msgs@@@boost@@@Z@boost@@@function@detail@boost@@SAXAEBTfunction_buffer@234@AEAT5234@W4functor_manager_operation_type@234@@Z
	?manage_small@?$functor_manager_common@U?$DefaultMessageCreator@U?$JointState_@V?$allocator@X@std@@@sensor_msgs@@@ros@@@function@detail@boost@@SAXAEBTfunction_buffer@234@AEAT5234@W4functor_manager_operation_type@234@@Z
	?manage_small@?$functor_manager_common@V?$bind_t@XV?$mf1@XVJointStateListener@robot_state_publisher@@AEBUTimerEvent@ros@@@_mfi@boost@@V?$list2@V?$value@PEAVJointStateListener@robot_state_publisher@@@_bi@boost@@U?$arg@$00@3@@_bi@3@@_bi@boost@@@function@detail@boost@@SAXAEBTfunction_buffer@234@AEAT5234@W4functor_manager_operation_type@234@@Z
	?manage_small@?$functor_manager_common@V?$bind_t@XV?$mf1@XVJointStateListener@robot_state_publisher@@AEBV?$shared_ptr@$$CBU?$JointState_@V?$allocator@X@std@@@sensor_msgs@@@boost@@@_mfi@boost@@V?$list2@V?$value@PEAVJointStateListener@robot_state_publisher@@@_bi@boost@@U?$arg@$00@3@@_bi@3@@_bi@boost@@@function@detail@boost@@SAXAEBTfunction_buffer@234@AEAT5234@W4functor_manager_operation_type@234@@Z
	?manager@?$functor_manager@U?$DefaultMessageCreator@U?$JointState_@V?$allocator@X@std@@@sensor_msgs@@@ros@@@function@detail@boost@@CAXAEBTfunction_buffer@234@AEAT5234@W4functor_manager_operation_type@234@U?$bool_@$00@mpl@4@@Z
	?manager@?$functor_manager@U?$DefaultMessageCreator@U?$JointState_@V?$allocator@X@std@@@sensor_msgs@@@ros@@@function@detail@boost@@CAXAEBTfunction_buffer@234@AEAT5234@W4functor_manager_operation_type@234@Ufunction_obj_tag@234@@Z
	?manager@?$functor_manager@V?$bind_t@XV?$mf1@XVJointStateListener@robot_state_publisher@@AEBUTimerEvent@ros@@@_mfi@boost@@V?$list2@V?$value@PEAVJointStateListener@robot_state_publisher@@@_bi@boost@@U?$arg@$00@3@@_bi@3@@_bi@boost@@@function@detail@boost@@CAXAEBTfunction_buffer@234@AEAT5234@W4functor_manager_operation_type@234@U?$bool_@$00@mpl@4@@Z
	?manager@?$functor_manager@V?$bind_t@XV?$mf1@XVJointStateListener@robot_state_publisher@@AEBUTimerEvent@ros@@@_mfi@boost@@V?$list2@V?$value@PEAVJointStateListener@robot_state_publisher@@@_bi@boost@@U?$arg@$00@3@@_bi@3@@_bi@boost@@@function@detail@boost@@CAXAEBTfunction_buffer@234@AEAT5234@W4functor_manager_operation_type@234@Ufunction_obj_tag@234@@Z
	?manager@?$functor_manager@V?$bind_t@XV?$mf1@XVJointStateListener@robot_state_publisher@@AEBV?$shared_ptr@$$CBU?$JointState_@V?$allocator@X@std@@@sensor_msgs@@@boost@@@_mfi@boost@@V?$list2@V?$value@PEAVJointStateListener@robot_state_publisher@@@_bi@boost@@U?$arg@$00@3@@_bi@3@@_bi@boost@@@function@detail@boost@@CAXAEBTfunction_buffer@234@AEAT5234@W4functor_manager_operation_type@234@U?$bool_@$00@mpl@4@@Z
	?manager@?$functor_manager@V?$bind_t@XV?$mf1@XVJointStateListener@robot_state_publisher@@AEBV?$shared_ptr@$$CBU?$JointState_@V?$allocator@X@std@@@sensor_msgs@@@boost@@@_mfi@boost@@V?$list2@V?$value@PEAVJointStateListener@robot_state_publisher@@@_bi@boost@@U?$arg@$00@3@@_bi@3@@_bi@boost@@@function@detail@boost@@CAXAEBTfunction_buffer@234@AEAT5234@W4functor_manager_operation_type@234@Ufunction_obj_tag@234@@Z
	?manager@?$functor_manager@V?$function@$$A6AXAEBV?$shared_ptr@$$CBU?$JointState_@V?$allocator@X@std@@@sensor_msgs@@@boost@@@Z@boost@@@function@detail@boost@@CAXAEBTfunction_buffer@234@AEAT5234@W4functor_manager_operation_type@234@U?$bool_@$0A@@mpl@4@@Z
	?manager@?$functor_manager@V?$function@$$A6AXAEBV?$shared_ptr@$$CBU?$JointState_@V?$allocator@X@std@@@sensor_msgs@@@boost@@@Z@boost@@@function@detail@boost@@CAXAEBTfunction_buffer@234@AEAT5234@W4functor_manager_operation_type@234@Ufunction_obj_tag@234@@Z
	?max@?$numeric_limits@_J@std@@SA_JXZ
	?max@KDL@@YANNN@Z
	?max_size@?$_Default_allocator_traits@V?$allocator@D@std@@@std@@SA_KAEBV?$allocator@D@2@@Z
	?max_size@?$_Default_allocator_traits@V?$allocator@N@std@@@std@@SA_KAEBV?$allocator@N@2@@Z
	?max_size@?$_Default_allocator_traits@V?$allocator@U?$_Tree_node@U?$pair@$$CBV?$basic_string@DU?$char_traits@D@std@@V?$allocator@D@2@@std@@N@std@@PEAX@std@@@std@@@std@@SA_KAEBV?$allocator@U?$_Tree_node@U?$pair@$$CBV?$basic_string@DU?$char_traits@D@std@@V?$allocator@D@2@@std@@N@std@@PEAX@std@@@2@@Z
	?max_size@?$_Default_allocator_traits@V?$allocator@U?$_Tree_node@U?$pair@$$CBV?$basic_string@DU?$char_traits@D@std@@V?$allocator@D@2@@std@@V?$shared_ptr@VJointMimic@urdf@@@2@@std@@PEAX@std@@@std@@@std@@SA_KAEBV?$allocator@U?$_Tree_node@U?$pair@$$CBV?$basic_string@DU?$char_traits@D@std@@V?$allocator@D@2@@std@@V?$shared_ptr@VJointMimic@urdf@@@2@@std@@PEAX@std@@@2@@Z
	?max_size@?$_Default_allocator_traits@V?$allocator@U?$_Tree_node@U?$pair@$$CBV?$basic_string@DU?$char_traits@D@std@@V?$allocator@D@2@@std@@VTime@ros@@@std@@PEAX@std@@@std@@@std@@SA_KAEBV?$allocator@U?$_Tree_node@U?$pair@$$CBV?$basic_string@DU?$char_traits@D@std@@V?$allocator@D@2@@std@@VTime@ros@@@std@@PEAX@std@@@2@@Z
	?max_size@?$_Default_allocator_traits@V?$allocator@V?$basic_string@DU?$char_traits@D@std@@V?$allocator@D@2@@std@@@std@@@std@@SA_KAEBV?$allocator@V?$basic_string@DU?$char_traits@D@std@@V?$allocator@D@2@@std@@@2@@Z
	?max_size@?$_Tree@V?$_Tmap_traits@V?$basic_string@DU?$char_traits@D@std@@V?$allocator@D@2@@std@@NU?$less@V?$basic_string@DU?$char_traits@D@std@@V?$allocator@D@2@@std@@@2@V?$allocator@U?$pair@$$CBV?$basic_string@DU?$char_traits@D@std@@V?$allocator@D@2@@std@@N@std@@@2@$0A@@std@@@std@@QEBA_KXZ
	?max_size@?$_Tree@V?$_Tmap_traits@V?$basic_string@DU?$char_traits@D@std@@V?$allocator@D@2@@std@@V?$shared_ptr@VJointMimic@urdf@@@2@U?$less@V?$basic_string@DU?$char_traits@D@std@@V?$allocator@D@2@@std@@@2@V?$allocator@U?$pair@$$CBV?$basic_string@DU?$char_traits@D@std@@V?$allocator@D@2@@std@@V?$shared_ptr@VJointMimic@urdf@@@2@@std@@@2@$0A@@std@@@std@@QEBA_KXZ
	?max_size@?$_Tree@V?$_Tmap_traits@V?$basic_string@DU?$char_traits@D@std@@V?$allocator@D@2@@std@@VTime@ros@@U?$less@V?$basic_string@DU?$char_traits@D@std@@V?$allocator@D@2@@std@@@2@V?$allocator@U?$pair@$$CBV?$basic_string@DU?$char_traits@D@std@@V?$allocator@D@2@@std@@VTime@ros@@@std@@@2@$0A@@std@@@std@@QEBA_KXZ
	?max_size@?$basic_string@DU?$char_traits@D@std@@V?$allocator@D@2@@std@@QEBA_KXZ
	?max_size@?$vector@NV?$allocator@N@std@@@std@@QEBA_KXZ
	?max_size@?$vector@V?$basic_string@DU?$char_traits@D@std@@V?$allocator@D@2@@std@@V?$allocator@V?$basic_string@DU?$char_traits@D@std@@V?$allocator@D@2@@std@@@2@@std@@QEBA_KXZ
	?move@?$_Narrow_char_traits@DH@std@@SAPEADQEADQEBD_K@Z
	?move_assign@?$function0@V?$shared_ptr@U?$JointState_@V?$allocator@X@std@@@sensor_msgs@@@boost@@@boost@@AEAAXAEAV12@@Z
	?name@type_info@@QEBAPEBDXZ
	?nonConstWillCopy@?$MessageEvent@$$CBX@ros@@QEBA_NXZ
	?notify@?$PreDeserialize@U?$JointState_@V?$allocator@X@std@@@sensor_msgs@@@serialization@ros@@SAXAEBU?$PreDeserializeParams@U?$JointState_@V?$allocator@X@std@@@sensor_msgs@@@23@@Z
	?operator_fn@?$sp_ms_deleter@U?$JointState_@V?$allocator@X@std@@@sensor_msgs@@@detail@boost@@SAXPEAU?$JointState_@V?$allocator@X@std@@@sensor_msgs@@@Z
	?operator_fn@?$sp_ms_deleter@V?$SubscriptionCallbackHelperT@AEBV?$shared_ptr@$$CBU?$JointState_@V?$allocator@X@std@@@sensor_msgs@@@boost@@X@ros@@@detail@boost@@SAXPEAV?$SubscriptionCallbackHelperT@AEBV?$shared_ptr@$$CBU?$JointState_@V?$allocator@X@std@@@sensor_msgs@@@boost@@X@ros@@@Z
	?pointer_to@?$pointer_traits@PEAU?$pair@$$CBV?$basic_string@DU?$char_traits@D@std@@V?$allocator@D@2@@std@@V?$shared_ptr@VJoint@urdf@@@2@@std@@@std@@SAPEAU?$pair@$$CBV?$basic_string@DU?$char_traits@D@std@@V?$allocator@D@2@@std@@V?$shared_ptr@VJoint@urdf@@@2@@2@AEAU32@@Z
	?pointer_to@?$pointer_traits@PEAU?$pair@$$CBV?$basic_string@DU?$char_traits@D@std@@V?$allocator@D@2@@std@@V?$shared_ptr@VJointMimic@urdf@@@2@@std@@@std@@SAPEAU?$pair@$$CBV?$basic_string@DU?$char_traits@D@std@@V?$allocator@D@2@@std@@V?$shared_ptr@VJointMimic@urdf@@@2@@2@AEAU32@@Z
	?release@?$refcount_ptr@Uerror_info_container@exception_detail@boost@@@exception_detail@boost@@AEAAXXZ
	?release@sp_counted_base@detail@boost@@QEAAXXZ
	?resize@?$vector@NV?$allocator@N@std@@@std@@QEAAX_K@Z
	?resize@?$vector@V?$basic_string@DU?$char_traits@D@std@@V?$allocator@D@2@@std@@V?$allocator@V?$basic_string@DU?$char_traits@D@std@@V?$allocator@D@2@@std@@@2@@std@@QEAAX_K@Z
	?rethrow@?$clone_impl@U?$error_info_injector@Vbad_function_call@boost@@@exception_detail@boost@@@exception_detail@boost@@$0PPPPPPPM@A@EBAXXZ
	?rethrow@?$clone_impl@U?$error_info_injector@Vbad_function_call@boost@@@exception_detail@boost@@@exception_detail@boost@@EEBAXXZ
	?select_on_container_copy_construction@?$_Default_allocator_traits@V?$allocator@D@std@@@std@@SA?AV?$allocator@D@2@AEBV32@@Z
	?select_on_container_copy_construction@?$_Default_allocator_traits@V?$allocator@U?$_Tree_node@U?$pair@$$CBV?$basic_string@DU?$char_traits@D@std@@V?$allocator@D@2@@std@@V?$shared_ptr@VJointMimic@urdf@@@2@@std@@PEAX@std@@@std@@@std@@SA?AV?$allocator@U?$_Tree_node@U?$pair@$$CBV?$basic_string@DU?$char_traits@D@std@@V?$allocator@D@2@@std@@V?$shared_ptr@VJointMimic@urdf@@@2@@std@@PEAX@std@@@2@AEBV32@@Z
	?set_initialized@?$sp_ms_deleter@U?$JointState_@V?$allocator@X@std@@@sensor_msgs@@@detail@boost@@QEAAXXZ
	?set_initialized@?$sp_ms_deleter@V?$SubscriptionCallbackHelperT@AEBV?$shared_ptr@$$CBU?$JointState_@V?$allocator@X@std@@@sensor_msgs@@@boost@@X@ros@@@detail@boost@@QEAAXXZ
	?size@?$vector@NV?$allocator@N@std@@@std@@QEBA_KXZ
	?size@?$vector@V?$basic_string@DU?$char_traits@D@std@@V?$allocator@D@2@@std@@V?$allocator@V?$basic_string@DU?$char_traits@D@std@@V?$allocator@D@2@@std@@@2@@std@@QEBA_KXZ
	?sp_enable_shared_from_this@detail@boost@@YAXZZ
	?substr@?$basic_string@DU?$char_traits@D@std@@V?$allocator@D@2@@std@@QEBA?AV12@_K0@Z
	?swap@?$function0@V?$shared_ptr@U?$JointState_@V?$allocator@X@std@@@sensor_msgs@@@boost@@@boost@@QEAAXAEAV12@@Z
	?swap@?$shared_ptr@$$CBU?$JointState_@V?$allocator@X@std@@@sensor_msgs@@@boost@@QEAAXAEAV12@@Z
	?swap@?$shared_ptr@U?$JointState_@V?$allocator@X@std@@@sensor_msgs@@@boost@@QEAAXAEAV12@@Z
	?swap@?$shared_ptr@V?$map@V?$basic_string@DU?$char_traits@D@std@@V?$allocator@D@2@@std@@V12@U?$less@V?$basic_string@DU?$char_traits@D@std@@V?$allocator@D@2@@std@@@2@V?$allocator@U?$pair@$$CBV?$basic_string@DU?$char_traits@D@std@@V?$allocator@D@2@@std@@V12@@std@@@2@@std@@@boost@@QEAAXAEAV12@@Z
	?swap@?$shared_ptr@VSubscriptionCallbackHelper@ros@@@boost@@QEAAXAEAV12@@Z
	?swap@shared_count@detail@boost@@QEAAXAEAV123@@Z
	?throw_exception_assert_compatibility@boost@@YAXAEBVexception@std@@@Z
	?type_info@stl_type_index@typeindex@boost@@QEBAAEBV0@XZ
	?unwrap@?$unwrapper@V?$mf1@XVJointStateListener@robot_state_publisher@@AEBUTimerEvent@ros@@@_mfi@boost@@@_bi@boost@@SAAEAV?$mf1@XVJointStateListener@robot_state_publisher@@AEBUTimerEvent@ros@@@_mfi@3@AEAV453@J@Z
	?unwrap@?$unwrapper@V?$mf1@XVJointStateListener@robot_state_publisher@@AEBV?$shared_ptr@$$CBU?$JointState_@V?$allocator@X@std@@@sensor_msgs@@@boost@@@_mfi@boost@@@_bi@boost@@SAAEAV?$mf1@XVJointStateListener@robot_state_publisher@@AEBV?$shared_ptr@$$CBU?$JointState_@V?$allocator@X@std@@@sensor_msgs@@@boost@@@_mfi@3@AEAV453@J@Z
	?value@?$DataType@U?$JointState_@V?$allocator@X@std@@@sensor_msgs@@@message_traits@ros@@SAPEBDXZ
	?value@?$MD5Sum@U?$JointState_@V?$allocator@X@std@@@sensor_msgs@@@message_traits@ros@@SAPEBDXZ
	?weak_release@sp_counted_base@detail@boost@@QEAAXXZ
	?what@exception@std@@UEBAPEBDXZ
	main
	wmemcpy
